(lp0
(S'Val34_Gly35'
p1
F0.0
tp2
a(S'Val34_Met36'
p3
F0.0002574084681961562
tp4
a(S'Val34_Gly37'
p5
F0.001333411160402015
tp6
a(S'Val34_Ile38'
p7
F0.00491188951926215
tp8
a(S'Val34_Val39'
p9
F0.002043711912553791
tp10
a(S'Val34_Met40'
p11
F0.0019683271296591053
tp12
a(S'Val34_Ser41'
p13
F0.0
tp14
a(S'Val34_Leu42'
p15
F0.0027766010082462367
tp16
a(S'Ala91_Val34'
p17
F0.0009502218459921565
tp18
a(S'Ile94_Val34'
p19
F0.0011430572929698336
tp20
a(S'Val34_Leu95'
p21
F0.0
tp22
a(S'Val34_Met96'
p23
F0.0
tp24
a(S'Gly35_Met36'
p25
F0.0
tp26
a(S'Gly35_Gly37'
p27
F0.0
tp28
a(S'Gly35_Ile38'
p29
F0.0
tp30
a(S'Gly35_Val39'
p31
F0.007309125037695784
tp32
a(S'Gly35_Met40'
p33
F0.00024453271898517125
tp34
a(S'Gly35_Ser41'
p35
F0.0
tp36
a(S'Gly35_Leu42'
p37
F0.0
tp38
a(S'Gly35_Ile43'
p39
F0.00039916050660906575
tp40
a(S'Ile94_Gly35'
p41
F0.0
tp42
a(S'Gly35_Leu95'
p43
F0.0
tp44
a(S'Met36_Gly37'
p45
F7.263763974857861e-06
tp46
a(S'Met36_Ile38'
p47
F0.0
tp48
a(S'Met36_Val39'
p49
F0.0
tp50
a(S'Met36_Met40'
p51
F0.002004784703512922
tp52
a(S'Met36_Ser41'
p53
F6.287662997832812e-06
tp54
a(S'Met36_Leu42'
p55
F0.0016677423137996547
tp56
a(S'Met36_Ile43'
p57
F0.0
tp58
a(S'Met36_Val44'
p59
F0.0
tp60
a(S'Val87_Met36'
p61
F0.0
tp62
a(S'Met36_Gly90'
p63
F0.0
tp64
a(S'Ala91_Met36'
p65
F0.0
tp66
a(S'Ala92_Met36'
p67
F0.0
tp68
a(S'Ile94_Met36'
p69
F0.0
tp70
a(S'Met36_Leu95'
p71
F0.0
tp72
a(S'Met36_Met96'
p73
F0.0
tp74
a(S'Met36_Lys97'
p75
F0.0013696614920112172
tp76
a(S'Met36_Leu310'
p77
F0.0
tp78
a(S'Met36_Trp313'
p79
F0.0
tp80
a(S'Gly37_Ile38'
p81
F0.0
tp82
a(S'Gly37_Val39'
p83
F0.0
tp84
a(S'Gly37_Met40'
p85
F0.0
tp86
a(S'Gly37_Ser41'
p87
F0.0004445222805993796
tp88
a(S'Gly37_Leu42'
p89
F0.0009688630990603835
tp90
a(S'Gly37_Ile43'
p91
F0.0
tp92
a(S'Gly37_Val44'
p93
F0.0
tp94
a(S'Gly37_Leu45'
p95
F0.0
tp96
a(S'Val87_Gly37'
p97
F0.0
tp98
a(S'Pro88_Gly37'
p99
F0.0
tp100
a(S'Gly37_Gly90'
p101
F0.0
tp102
a(S'Ala91_Gly37'
p103
F0.0
tp104
a(S'Ala92_Gly37'
p105
F0.0
tp106
a(S'Ile94_Gly37'
p107
F0.0
tp108
a(S'Gly37_Leu95'
p109
F0.0
tp110
a(S'Gly37_Met96'
p111
F0.0
tp112
a(S'Gly37_Trp313'
p113
F0.0
tp114
a(S'Ile38_Val39'
p115
F0.0006334442498541157
tp116
a(S'Ile38_Met40'
p117
F0.0
tp118
a(S'Ile38_Ser41'
p119
F0.0
tp120
a(S'Ile38_Leu42'
p121
F0.0
tp122
a(S'Ile38_Ile43'
p123
F0.0
tp124
a(S'Ile38_Val44'
p125
F0.0
tp126
a(S'Ile38_Leu45'
p127
F0.0
tp128
a(S'Ile38_Ala46'
p129
F0.0
tp130
a(S'Val87_Ile38'
p131
F0.0
tp132
a(S'Ala91_Ile38'
p133
F0.0
tp134
a(S'Ile38_Leu95'
p135
F0.0
tp136
a(S'Ile38_Trp313'
p137
F0.0
tp138
a(S'Val39_Met40'
p139
F0.0
tp140
a(S'Val39_Ser41'
p141
F0.0
tp142
a(S'Val39_Leu42'
p143
F0.0
tp144
a(S'Val39_Ile43'
p145
F0.0
tp146
a(S'Val39_Val44'
p147
F0.0
tp148
a(S'Val39_Leu45'
p149
F0.0
tp150
a(S'Val39_Ala46'
p151
F0.0
tp152
a(S'Val39_Ile47'
p153
F0.0
tp154
a(S'Val87_Val39'
p155
F0.0
tp156
a(S'Ala91_Val39'
p157
F0.0
tp158
a(S'Val39_Leu95'
p159
F0.0
tp160
a(S'Val39_Leu310'
p161
F0.0
tp162
a(S'Val39_Trp313'
p163
F0.001212192581815089
tp164
a(S'Val39_Val317'
p165
F0.00030008757589912905
tp166
a(S'Met40_Ser41'
p167
F0.0
tp168
a(S'Met40_Leu42'
p169
F0.0
tp170
a(S'Met40_Ile43'
p171
F0.0015755736655681885
tp172
a(S'Met40_Val44'
p173
F0.0
tp174
a(S'Met40_Leu45'
p175
F0.0
tp176
a(S'Met40_Ala46'
p177
F0.0
tp178
a(S'Met40_Ile47'
p179
F0.0009782171180465027
tp180
a(S'Met40_Val48'
p181
F0.0
tp182
a(S'Met82_Met40'
p183
F0.0
tp184
a(S'Gly83_Met40'
p185
F0.0
tp186
a(S'Leu84_Met40'
p187
F0.0
tp188
a(S'Val86_Met40'
p189
F0.0
tp190
a(S'Val87_Met40'
p191
F0.0
tp192
a(S'Pro88_Met40'
p193
F0.0
tp194
a(S'Phe89_Met40'
p195
F0.0
tp196
a(S'Met40_Gly90'
p197
F0.0
tp198
a(S'Ala91_Met40'
p199
F0.0
tp200
a(S'Ala92_Met40'
p201
F0.0005000583737085851
tp202
a(S'His93_Met40'
p203
F0.0004445222805993796
tp204
a(S'Ile94_Met40'
p205
F0.0
tp206
a(S'Met40_Leu95'
p207
F0.0
tp208
a(S'Met40_Met96'
p209
F0.0
tp210
a(S'Met40_Lys97'
p211
F0.0
tp212
a(S'Met40_Ile309'
p213
F0.0
tp214
a(S'Met40_Leu310'
p215
F0.0
tp216
a(S'Met40_Trp313'
p217
F0.0
tp218
a(S'Met40_Ile314'
p219
F0.0
tp220
a(S'Met40_Tyr316'
p221
F0.0
tp222
a(S'Met40_Val317'
p223
F0.0
tp224
a(S'Ser41_Leu42'
p225
F0.0
tp226
a(S'Ser41_Ile43'
p227
F0.0
tp228
a(S'Ser41_Val44'
p229
F0.0
tp230
a(S'Ser41_Leu45'
p231
F0.0
tp232
a(S'Ser41_Ala46'
p233
F0.0
tp234
a(S'Ser41_Ile47'
p235
F0.0
tp236
a(S'Ser41_Val48'
p237
F0.001000233522097007
tp238
a(S'Ser41_Phe49'
p239
F7.570782630278084e-07
tp240
a(S'Gly83_Ser41'
p241
F0.0013136628590847323
tp242
a(S'Val87_Ser41'
p243
F0.0
tp244
a(S'Pro88_Ser41'
p245
F0.0
tp246
a(S'Phe89_Ser41'
p247
F0.0
tp248
a(S'Ser41_Gly90'
p249
F0.0
tp250
a(S'Ala91_Ser41'
p251
F0.0005000583737085851
tp252
a(S'Ala92_Ser41'
p253
F0.0
tp254
a(S'Ser41_Leu95'
p255
F0.0009978067311009664
tp256
a(S'Ser41_Trp313'
p257
F0.0
tp258
a(S'Ser41_Val317'
p259
F0.0
tp260
a(S'Leu42_Ile43'
p261
F0.0
tp262
a(S'Leu42_Val44'
p263
F0.0
tp264
a(S'Leu42_Leu45'
p265
F0.0
tp266
a(S'Leu42_Ala46'
p267
F0.0
tp268
a(S'Leu42_Ile47'
p269
F0.0
tp270
a(S'Leu42_Val48'
p271
F0.0
tp272
a(S'Leu42_Phe49'
p273
F0.0
tp274
a(S'Leu42_Gly50'
p275
F0.0
tp276
a(S'Gly83_Leu42'
p277
F0.0019127483515886507
tp278
a(S'Val87_Leu42'
p279
F0.0
tp280
a(S'Pro88_Leu42'
p281
F0.0
tp282
a(S'Ala91_Leu42'
p283
F0.0
tp284
a(S'Leu42_Leu95'
p285
F0.0
tp286
a(S'Leu42_Trp313'
p287
F0.0
tp288
a(S'Leu42_Tyr316'
p289
F0.0
tp290
a(S'Leu42_Val317'
p291
F0.0
tp292
a(S'Leu42_Ser319'
p293
F0.0
tp294
a(S'Leu42_Gly320'
p295
F0.0
tp296
a(S'Ile43_Val44'
p297
F0.0
tp298
a(S'Ile43_Leu45'
p299
F0.0
tp300
a(S'Ile43_Ala46'
p301
F0.0
tp302
a(S'Ile43_Ile47'
p303
F0.0
tp304
a(S'Ile43_Val48'
p305
F0.0012065604759126016
tp306
a(S'Ile43_Phe49'
p307
F0.0
tp308
a(S'Ile43_Gly50'
p309
F0.0
tp310
a(S'Ile43_Asn51'
p311
F0.0
tp312
a(S'Asp79_Ile43'
p313
F0.0
tp314
a(S'Leu80_Ile43'
p315
F0.0
tp316
a(S'Met82_Ile43'
p317
F0.0
tp318
a(S'Gly83_Ile43'
p319
F0.0
tp320
a(S'Leu84_Ile43'
p321
F0.0019475957712860664
tp322
a(S'Val86_Ile43'
p323
F0.0
tp324
a(S'Val87_Ile43'
p325
F0.0
tp326
a(S'Pro88_Ile43'
p327
F0.0
tp328
a(S'Ile43_Gly90'
p329
F0.001665307168552621
tp330
a(S'Ala91_Ile43'
p331
F0.0
tp332
a(S'Ile94_Ile43'
p333
F0.0
tp334
a(S'Ile43_Leu310'
p335
F0.0
tp336
a(S'Ile43_Asn312'
p337
F0.0
tp338
a(S'Ile43_Trp313'
p339
F0.0
tp340
a(S'Ile43_Ile314'
p341
F0.0
tp342
a(S'Ile43_Gly315'
p343
F0.0
tp344
a(S'Ile43_Tyr316'
p345
F0.0
tp346
a(S'Ile43_Val317'
p347
F0.0
tp348
a(S'Ile43_Asn318'
p349
F0.0
tp350
a(S'Ile43_Ser319'
p351
F0.0
tp352
a(S'Ile43_Gly320'
p353
F0.0
tp354
a(S'Ile43_Phe321'
p355
F0.0009707015489637236
tp356
a(S'Ile43_Pro323'
p357
F0.0
tp358
a(S'Val44_Leu45'
p359
F0.0
tp360
a(S'Val44_Ala46'
p361
F0.0
tp362
a(S'Val44_Ile47'
p363
F0.0
tp364
a(S'Val44_Val48'
p365
F0.0
tp366
a(S'Val44_Phe49'
p367
F0.0003277218720350055
tp368
a(S'Val44_Gly50'
p369
F0.0
tp370
a(S'Val44_Asn51'
p371
F0.0
tp372
a(S'Val44_Val52'
p373
F0.0
tp374
a(S'Asp79_Val44'
p375
F0.0001617044194056842
tp376
a(S'Leu80_Val44'
p377
F0.0
tp378
a(S'Val81_Val44'
p379
F0.0
tp380
a(S'Met82_Val44'
p381
F0.0
tp382
a(S'Gly83_Val44'
p383
F0.0005000583737085851
tp384
a(S'Leu84_Val44'
p385
F0.0
tp386
a(S'Ala85_Val44'
p387
F0.000650907625163377
tp388
a(S'Val86_Val44'
p389
F0.0
tp390
a(S'Val87_Val44'
p391
F0.0
tp392
a(S'Pro88_Val44'
p393
F0.0
tp394
a(S'Phe89_Val44'
p395
F0.0
tp396
a(S'Val44_Gly90'
p397
F0.0
tp398
a(S'Ala91_Val44'
p399
F0.0
tp400
a(S'Ala92_Val44'
p401
F0.0
tp402
a(S'Val44_Leu95'
p403
F0.0
tp404
a(S'Val44_Trp109'
p405
F0.002395492776771191
tp406
a(S'Val44_Trp313'
p407
F0.0
tp408
a(S'Val44_Tyr316'
p409
F0.0
tp410
a(S'Val44_Val317'
p411
F0.0
tp412
a(S'Val44_Asn318'
p413
F0.0
tp414
a(S'Val44_Ser319'
p415
F0.0004445222805993796
tp416
a(S'Val44_Gly320'
p417
F0.0
tp418
a(S'Leu45_Ala46'
p419
F3.2863035038070546e-06
tp420
a(S'Leu45_Ile47'
p421
F0.00039440081403885536
tp422
a(S'Leu45_Val48'
p423
F0.0
tp424
a(S'Leu45_Phe49'
p425
F0.0
tp426
a(S'Leu45_Gly50'
p427
F0.0
tp428
a(S'Leu45_Asn51'
p429
F0.0
tp430
a(S'Leu45_Val52'
p431
F0.0
tp432
a(S'Leu45_Leu53'
p433
F0.0
tp434
a(S'Asp79_Leu45'
p435
F0.0
tp436
a(S'Leu80_Leu45'
p437
F0.0
tp438
a(S'Met82_Leu45'
p439
F0.0
tp440
a(S'Gly83_Leu45'
p441
F0.00016196668179685095
tp442
a(S'Leu84_Leu45'
p443
F0.002148126732346392
tp444
a(S'Val87_Leu45'
p445
F0.0
tp446
a(S'Pro88_Leu45'
p447
F0.0
tp448
a(S'Ala91_Leu45'
p449
F0.0
tp450
a(S'Leu45_Trp313'
p451
F0.0
tp452
a(S'Leu45_Tyr316'
p453
F0.0
tp454
a(S'Leu45_Val317'
p455
F0.0
tp456
a(S'Leu45_Ser319'
p457
F0.0
tp458
a(S'Leu45_Gly320'
p459
F0.0
tp460
a(S'Leu45_Phe321'
p461
F0.0
tp462
a(S'Leu45_Pro323'
p463
F0.0008185162379370383
tp464
a(S'Ala46_Ile47'
p465
F0.0006667834208990694
tp466
a(S'Ala46_Val48'
p467
F0.0
tp468
a(S'Ala46_Phe49'
p469
F0.0
tp470
a(S'Ala46_Gly50'
p471
F0.0
tp472
a(S'Ala46_Asn51'
p473
F0.0
tp474
a(S'Ala46_Val52'
p475
F0.000916773685132406
tp476
a(S'Ala46_Leu53'
p477
F0.0
tp478
a(S'Ala46_Val54'
p479
F0.0
tp480
a(S'Ala46_Ala76'
p481
F0.0
tp482
a(S'Asp79_Ala46'
p483
F0.0
tp484
a(S'Leu80_Ala46'
p485
F0.0
tp486
a(S'Met82_Ala46'
p487
F0.0
tp488
a(S'Gly83_Ala46'
p489
F0.0
tp490
a(S'Leu84_Ala46'
p491
F0.0
tp492
a(S'Val87_Ala46'
p493
F0.0
tp494
a(S'Ala46_Tyr316'
p495
F0.0
tp496
a(S'Ala46_Val317'
p497
F0.0
tp498
a(S'Ala46_Asn318'
p499
F0.0
tp500
a(S'Ala46_Ser319'
p501
F0.0
tp502
a(S'Ala46_Gly320'
p503
F0.0
tp504
a(S'Ala46_Phe321'
p505
F0.0
tp506
a(S'Ala46_Asn322'
p507
F0.0006667834208990694
tp508
a(S'Ala46_Pro323'
p509
F0.0
tp510
a(S'Ala46_Leu324'
p511
F0.0
tp512
a(S'Ile47_Val48'
p513
F0.0
tp514
a(S'Ile47_Phe49'
p515
F0.0014484209991247406
tp516
a(S'Ile47_Gly50'
p517
F0.003387100448635978
tp518
a(S'Ile47_Asn51'
p519
F0.0
tp520
a(S'Ile47_Val52'
p521
F0.0
tp522
a(S'Ile47_Leu53'
p523
F0.0
tp524
a(S'Ile47_Val54'
p525
F0.001833440345552771
tp526
a(S'Ile47_Ile55'
p527
F0.0
tp528
a(S'Ile47_Leu75'
p529
F0.0
tp530
a(S'Ile47_Ala76'
p531
F0.0
tp532
a(S'Cys77_Ile47'
p533
F0.0
tp534
a(S'Ala78_Ile47'
p535
F0.0
tp536
a(S'Asp79_Ile47'
p537
F0.0
tp538
a(S'Leu80_Ile47'
p539
F0.0
tp540
a(S'Val81_Ile47'
p541
F0.0
tp542
a(S'Met82_Ile47'
p543
F0.0
tp544
a(S'Gly83_Ile47'
p545
F0.0
tp546
a(S'Leu84_Ile47'
p547
F0.0
tp548
a(S'Ala85_Ile47'
p549
F0.0
tp550
a(S'Val86_Ile47'
p551
F0.0
tp552
a(S'Val87_Ile47'
p553
F0.0
tp554
a(S'Pro88_Ile47'
p555
F0.0
tp556
a(S'Ile47_Cys116'
p557
F0.0
tp558
a(S'Ile47_Ser120'
p559
F0.000500087565674302
tp560
a(S'Ile47_Trp286'
p561
F0.0
tp562
a(S'Ile47_Asn312'
p563
F0.0
tp564
a(S'Ile47_Trp313'
p565
F0.0
tp566
a(S'Ile47_Ile314'
p567
F0.0
tp568
a(S'Ile47_Gly315'
p569
F0.0011931913847667557
tp570
a(S'Ile47_Tyr316'
p571
F0.0
tp572
a(S'Ile47_Val317'
p573
F0.0
tp574
a(S'Ile47_Asn318'
p575
F0.0
tp576
a(S'Ile47_Ser319'
p577
F0.0
tp578
a(S'Ile47_Gly320'
p579
F0.0
tp580
a(S'Ile47_Phe321'
p581
F0.0
tp582
a(S'Ile47_Asn322'
p583
F0.0
tp584
a(S'Ile47_Pro323'
p585
F0.0011424040251376802
tp586
a(S'Ile47_Leu324'
p587
F0.0
tp588
a(S'Val48_Phe49'
p589
F0.0
tp590
a(S'Val48_Gly50'
p591
F0.0
tp592
a(S'Val48_Asn51'
p593
F0.0
tp594
a(S'Val48_Val52'
p595
F0.0
tp596
a(S'Val48_Leu53'
p597
F0.0
tp598
a(S'Val48_Val54'
p599
F0.0
tp600
a(S'Val48_Ile55'
p601
F0.00022230007201106972
tp602
a(S'Val48_Thr56'
p603
F0.0
tp604
a(S'Val48_Leu75'
p605
F0.0008000933979337359
tp606
a(S'Val48_Ala76'
p607
F0.0
tp608
a(S'Cys77_Val48'
p609
F0.0
tp610
a(S'Ala78_Val48'
p611
F0.0006593250756231271
tp612
a(S'Asp79_Val48'
p613
F0.0
tp614
a(S'Leu80_Val48'
p615
F0.0
tp616
a(S'Val81_Val48'
p617
F0.0004873986680450763
tp618
a(S'Met82_Val48'
p619
F0.0009945356248711463
tp620
a(S'Gly83_Val48'
p621
F0.0
tp622
a(S'Leu84_Val48'
p623
F0.0025865049388498224
tp624
a(S'Ala85_Val48'
p625
F0.0009546568952618446
tp626
a(S'Val86_Val48'
p627
F2.100983449407323e-06
tp628
a(S'Val87_Val48'
p629
F0.0
tp630
a(S'Pro88_Val48'
p631
F0.0
tp632
a(S'Val48_Tyr316'
p633
F0.0
tp634
a(S'Val48_Val317'
p635
F0.0
tp636
a(S'Val48_Asn318'
p637
F0.0
tp638
a(S'Val48_Ser319'
p639
F0.0
tp640
a(S'Val48_Gly320'
p641
F0.0
tp642
a(S'Val48_Phe321'
p643
F0.0
tp644
a(S'Val48_Pro323'
p645
F0.0009285362602814013
tp646
a(S'Val48_Phe336'
p647
F0.0
tp648
a(S'Phe49_Gly50'
p649
F0.0
tp650
a(S'Phe49_Asn51'
p651
F0.0016668612456952835
tp652
a(S'Phe49_Val52'
p653
F0.0
tp654
a(S'Phe49_Leu53'
p655
F0.0009091970431065184
tp656
a(S'Phe49_Val54'
p657
F0.0
tp658
a(S'Phe49_Ile55'
p659
F0.0
tp660
a(S'Phe49_Thr56'
p661
F0.0
tp662
a(S'Phe49_Ala57'
p663
F0.00025005838052425175
tp664
a(S'Phe49_Ala76'
p665
F0.0
tp666
a(S'Asp79_Phe49'
p667
F0.0
tp668
a(S'Leu80_Phe49'
p669
F0.0
tp670
a(S'Val81_Phe49'
p671
F0.0007144525157835765
tp672
a(S'Gly83_Phe49'
p673
F0.0
tp674
a(S'Leu84_Phe49'
p675
F0.0
tp676
a(S'Phe49_Ser319'
p677
F0.0
tp678
a(S'Phe49_Gly320'
p679
F0.0
tp680
a(S'Phe49_Phe321'
p681
F0.0
tp682
a(S'Phe49_Asn322'
p683
F0.0
tp684
a(S'Phe49_Pro323'
p685
F0.0
tp686
a(S'Phe49_Leu324'
p687
F0.0
tp688
a(S'Phe49_Cys327'
p689
F0.0
tp690
a(S'Phe49_Phe336'
p691
F0.0
tp692
a(S'Phe49_Gln337'
p693
F0.0
tp694
a(S'Gly50_Asn51'
p695
F0.0
tp696
a(S'Gly50_Val52'
p697
F0.0
tp698
a(S'Gly50_Leu53'
p699
F0.0
tp700
a(S'Gly50_Val54'
p701
F0.0
tp702
a(S'Gly50_Ile55'
p703
F0.0
tp704
a(S'Gly50_Thr56'
p705
F0.0
tp706
a(S'Gly50_Ala57'
p707
F0.0
tp708
a(S'Gly50_Ile58'
p709
F0.0
tp710
a(S'Gly50_Ile72'
p711
F0.0
tp712
a(S'Gly50_Thr73'
p713
F0.0
tp714
a(S'Gly50_Leu75'
p715
F0.0
tp716
a(S'Gly50_Ala76'
p717
F0.0
tp718
a(S'Cys77_Gly50'
p719
F0.0
tp720
a(S'Asp79_Gly50'
p721
F0.0
tp722
a(S'Leu80_Gly50'
p723
F0.0
tp724
a(S'Val81_Gly50'
p725
F0.0
tp726
a(S'Gly83_Gly50'
p727
F4.3670148314043405e-06
tp728
a(S'Gly50_Val317'
p729
F0.0
tp730
a(S'Gly50_Asn318'
p731
F0.0
tp732
a(S'Gly50_Ser319'
p733
F0.001305746900687918
tp734
a(S'Gly50_Gly320'
p735
F0.0
tp736
a(S'Gly50_Phe321'
p737
F0.0
tp738
a(S'Gly50_Asn322'
p739
F0.0
tp740
a(S'Gly50_Pro323'
p741
F0.0
tp742
a(S'Gly50_Leu324'
p743
F0.0
tp744
a(S'Gly50_Ile325'
p745
F0.0
tp746
a(S'Gly50_Tyr326'
p747
F0.0
tp748
a(S'Gly50_Cys327'
p749
F0.0
tp750
a(S'Gly50_Phe332'
p751
F0.0
tp752
a(S'Gly50_Phe336'
p753
F0.0
tp754
a(S'Asn51_Val52'
p755
F0.0
tp756
a(S'Asn51_Leu53'
p757
F0.0
tp758
a(S'Asn51_Val54'
p759
F0.0
tp760
a(S'Asn51_Ile55'
p761
F0.0
tp762
a(S'Asn51_Thr56'
p763
F0.0
tp764
a(S'Asn51_Ala57'
p765
F0.0
tp766
a(S'Asn51_Ile58'
p767
F0.0
tp768
a(S'Asn51_Ala59'
p769
F0.0
tp770
a(S'Asn51_Phe71'
p771
F0.0
tp772
a(S'Asn51_Ile72'
p773
F0.0
tp774
a(S'Asn51_Thr73'
p775
F0.0
tp776
a(S'Asn51_Ser74'
p777
F0.0
tp778
a(S'Asn51_Leu75'
p779
F0.0
tp780
a(S'Asn51_Ala76'
p781
F0.0
tp782
a(S'Cys77_Asn51'
p783
F0.0
tp784
a(S'Ala78_Asn51'
p785
F0.0019445579422529393
tp786
a(S'Asp79_Asn51'
p787
F0.0003334501080166046
tp788
a(S'Leu80_Asn51'
p789
F0.0
tp790
a(S'Val81_Asn51'
p791
F0.0
tp792
a(S'Met82_Asn51'
p793
F0.0
tp794
a(S'Gly83_Asn51'
p795
F0.0
tp796
a(S'Leu84_Asn51'
p797
F0.0
tp798
a(S'Val87_Asn51'
p799
F0.0
tp800
a(S'Asn51_Ser120'
p801
F0.0
tp802
a(S'Asn51_Thr123'
p803
F0.0
tp804
a(S'Asn51_Leu124'
p805
F0.0012685148007348145
tp806
a(S'Asn51_Ile127'
p807
F0.0
tp808
a(S'Asn51_Tyr316'
p809
F0.0
tp810
a(S'Asn51_Val317'
p811
F0.0
tp812
a(S'Asn51_Asn318'
p813
F0.0
tp814
a(S'Asn51_Ser319'
p815
F0.0009772893695825665
tp816
a(S'Asn51_Gly320'
p817
F0.0004974706406196755
tp818
a(S'Asn51_Phe321'
p819
F0.0
tp820
a(S'Asn51_Asn322'
p821
F0.0018751094443153337
tp822
a(S'Asn51_Pro323'
p823
F0.0
tp824
a(S'Asn51_Leu324'
p825
F0.0
tp826
a(S'Asn51_Ile325'
p827
F0.0
tp828
a(S'Asn51_Tyr326'
p829
F0.0
tp830
a(S'Asn51_Cys327'
p831
F0.0
tp832
a(S'Asn51_Phe332'
p833
F0.0
tp834
a(S'Asn51_Phe336'
p835
F0.0
tp836
a(S'Val52_Leu53'
p837
F0.0
tp838
a(S'Val52_Val54'
p839
F0.0
tp840
a(S'Val52_Ile55'
p841
F0.0
tp842
a(S'Val52_Thr56'
p843
F0.0
tp844
a(S'Val52_Ala57'
p845
F0.0
tp846
a(S'Val52_Ile58'
p847
F0.0
tp848
a(S'Val52_Ala59'
p849
F0.0
tp850
a(S'Val52_Lys60'
p851
F0.0
tp852
a(S'Val52_Phe61'
p853
F0.00021437330041208138
tp854
a(S'Val52_Ile72'
p855
F0.0
tp856
a(S'Val52_Thr73'
p857
F0.000373716170690874
tp858
a(S'Val52_Leu75'
p859
F0.0
tp860
a(S'Val52_Ala76'
p861
F0.0
tp862
a(S'Cys77_Val52'
p863
F0.0
tp864
a(S'Ala78_Val52'
p865
F0.0
tp866
a(S'Asp79_Val52'
p867
F0.0
tp868
a(S'Leu80_Val52'
p869
F0.0
tp870
a(S'Val81_Val52'
p871
F0.0
tp872
a(S'Gly83_Val52'
p873
F0.0
tp874
a(S'Leu84_Val52'
p875
F0.0
tp876
a(S'Val52_Ser319'
p877
F0.0019445579422529393
tp878
a(S'Val52_Gly320'
p879
F0.0
tp880
a(S'Val52_Pro323'
p881
F0.0
tp882
a(S'Val52_Cys327'
p883
F0.0
tp884
a(S'Val52_Phe332'
p885
F0.0
tp886
a(S'Val52_Ala335'
p887
F0.0
tp888
a(S'Val52_Phe336'
p889
F0.0
tp890
a(S'Leu53_Val54'
p891
F0.0
tp892
a(S'Leu53_Ile55'
p893
F0.0
tp894
a(S'Leu53_Thr56'
p895
F0.0
tp896
a(S'Leu53_Ala57'
p897
F0.0
tp898
a(S'Leu53_Ile58'
p899
F0.0
tp900
a(S'Leu53_Ala59'
p901
F0.0
tp902
a(S'Leu53_Lys60'
p903
F0.00039651211229914884
tp904
a(S'Leu53_Phe61'
p905
F3.05096350384179e-06
tp906
a(S'Leu53_Leu64'
p907
F0.0
tp908
a(S'Leu53_Ile72'
p909
F0.0
tp910
a(S'Leu53_Thr73'
p911
F0.0
tp912
a(S'Leu53_Ala76'
p913
F0.0
tp914
a(S'Cys77_Leu53'
p915
F0.0
tp916
a(S'Leu80_Leu53'
p917
F0.0
tp918
a(S'Leu53_Gly320'
p919
F0.0
tp920
a(S'Leu53_Pro323'
p921
F0.0
tp922
a(S'Leu53_Leu324'
p923
F0.0
tp924
a(S'Leu53_Cys327'
p925
F0.0
tp926
a(S'Leu53_Asp331'
p927
F0.00020005838393275275
tp928
a(S'Leu53_Phe332'
p929
F0.0
tp930
a(S'Leu53_Arg333'
p931
F0.0
tp932
a(S'Leu53_Ile334'
p933
F0.0
tp934
a(S'Leu53_Ala335'
p935
F0.0
tp936
a(S'Leu53_Phe336'
p937
F0.0
tp938
a(S'Leu53_Gln337'
p939
F0.0
tp940
a(S'Val54_Ile55'
p941
F0.0
tp942
a(S'Val54_Thr56'
p943
F0.00032009341429240423
tp944
a(S'Val54_Ala57'
p945
F0.0
tp946
a(S'Val54_Ile58'
p947
F0.0
tp948
a(S'Val54_Ala59'
p949
F0.0
tp950
a(S'Val54_Lys60'
p951
F0.0
tp952
a(S'Val54_Phe61'
p953
F0.0
tp954
a(S'Val54_Leu64'
p955
F0.0
tp956
a(S'Val54_Gln65'
p957
F1.6570890036873816e-06
tp958
a(S'Val54_Thr68'
p959
F0.0
tp960
a(S'Val54_Asn69'
p961
F0.0004896976618599937
tp962
a(S'Val54_Tyr70'
p963
F0.0
tp964
a(S'Val54_Phe71'
p965
F0.0
tp966
a(S'Val54_Ile72'
p967
F0.0
tp968
a(S'Val54_Thr73'
p969
F0.0
tp970
a(S'Val54_Ser74'
p971
F0.0
tp972
a(S'Val54_Leu75'
p973
F0.0
tp974
a(S'Val54_Ala76'
p975
F0.0
tp976
a(S'Cys77_Val54'
p977
F0.0
tp978
a(S'Ala78_Val54'
p979
F0.0
tp980
a(S'Asp79_Val54'
p981
F0.0
tp982
a(S'Leu80_Val54'
p983
F0.0
tp984
a(S'Val54_Ile127'
p985
F0.0
tp986
a(S'Val54_Ser319'
p987
F0.0
tp988
a(S'Val54_Gly320'
p989
F0.0012715404770633416
tp990
a(S'Val54_Phe321'
p991
F0.0
tp992
a(S'Val54_Asn322'
p993
F0.0
tp994
a(S'Val54_Pro323'
p995
F0.0
tp996
a(S'Val54_Leu324'
p997
F0.0
tp998
a(S'Val54_Ile325'
p999
F0.0
tp1000
a(S'Val54_Tyr326'
p1001
F0.0
tp1002
a(S'Val54_Cys327'
p1003
F0.0
tp1004
a(S'Val54_Arg328'
p1005
F0.0
tp1006
a(S'Val54_Ser329'
p1007
F0.0
tp1008
a(S'Val54_Asp331'
p1009
F0.0
tp1010
a(S'Val54_Phe332'
p1011
F1.040684087007722e-06
tp1012
a(S'Val54_Arg333'
p1013
F0.0
tp1014
a(S'Val54_Ala335'
p1015
F0.0
tp1016
a(S'Val54_Phe336'
p1017
F0.0
tp1018
a(S'Val54_Gln337'
p1019
F0.0
tp1020
a(S'Ile55_Thr56'
p1021
F0.0
tp1022
a(S'Ile55_Ala57'
p1023
F0.0
tp1024
a(S'Ile55_Ile58'
p1025
F0.0
tp1026
a(S'Ile55_Ala59'
p1027
F0.0
tp1028
a(S'Ile55_Lys60'
p1029
F0.0
tp1030
a(S'Ile55_Phe61'
p1031
F0.0
tp1032
a(S'Ile55_Glu62'
p1033
F0.0
tp1034
a(S'Ile55_Leu64'
p1035
F0.0
tp1036
a(S'Ile55_Gln65'
p1037
F0.0
tp1038
a(S'Ile55_Asn69'
p1039
F0.0
tp1040
a(S'Ile55_Tyr70'
p1041
F0.0
tp1042
a(S'Ile55_Phe71'
p1043
F0.0
tp1044
a(S'Ile55_Ile72'
p1045
F0.0
tp1046
a(S'Ile55_Thr73'
p1047
F0.0
tp1048
a(S'Ile55_Ser74'
p1049
F0.0
tp1050
a(S'Ile55_Leu75'
p1051
F0.0
tp1052
a(S'Ile55_Ala76'
p1053
F0.0
tp1054
a(S'Cys77_Ile55'
p1055
F0.0
tp1056
a(S'Ala78_Ile55'
p1057
F0.0
tp1058
a(S'Asp79_Ile55'
p1059
F0.0
tp1060
a(S'Leu80_Ile55'
p1061
F0.0013635773037081892
tp1062
a(S'Val81_Ile55'
p1063
F0.0
tp1064
a(S'Met82_Ile55'
p1065
F0.0
tp1066
a(S'Leu84_Ile55'
p1067
F0.0
tp1068
a(S'Ile55_Trp158'
p1069
F0.0
tp1070
a(S'Ile55_Pro323'
p1071
F0.0
tp1072
a(S'Ile55_Cys327'
p1073
F0.0
tp1074
a(S'Ile55_Phe332'
p1075
F0.0
tp1076
a(S'Ile55_Ala335'
p1077
F0.0
tp1078
a(S'Ile55_Phe336'
p1079
F0.0007638592841068743
tp1080
a(S'Thr56_Ala57'
p1081
F0.0020364355156585858
tp1082
a(S'Thr56_Ile58'
p1083
F0.0
tp1084
a(S'Thr56_Ala59'
p1085
F0.0
tp1086
a(S'Thr56_Lys60'
p1087
F0.0015418017335742302
tp1088
a(S'Thr56_Phe61'
p1089
F0.0
tp1090
a(S'Thr56_Glu62'
p1091
F0.0
tp1092
a(S'Thr56_Arg63'
p1093
F0.0
tp1094
a(S'Thr56_Leu64'
p1095
F0.0
tp1096
a(S'Thr56_Gln65'
p1097
F0.0
tp1098
a(S'Thr56_Asn69'
p1099
F0.0
tp1100
a(S'Thr56_Ile72'
p1101
F0.0007061708719456797
tp1102
a(S'Thr56_Thr73'
p1103
F0.0015798892513419539
tp1104
a(S'Thr56_Ala76'
p1105
F0.0
tp1106
a(S'Cys77_Thr56'
p1107
F0.001000175131348604
tp1108
a(S'Leu80_Thr56'
p1109
F0.0
tp1110
a(S'Thr56_Cys327'
p1111
F0.0
tp1112
a(S'Thr56_Asp331'
p1113
F0.0
tp1114
a(S'Thr56_Phe332'
p1115
F0.0
tp1116
a(S'Thr56_Ala335'
p1117
F0.0
tp1118
a(S'Thr56_Phe336'
p1119
F0.0
tp1120
a(S'Ala57_Ile58'
p1121
F0.0
tp1122
a(S'Ala57_Ala59'
p1123
F0.0002858310672161085
tp1124
a(S'Ala57_Lys60'
p1125
F0.0
tp1126
a(S'Ala57_Phe61'
p1127
F0.0
tp1128
a(S'Ala57_Glu62'
p1129
F0.0
tp1130
a(S'Ala57_Arg63'
p1131
F0.0
tp1132
a(S'Ala57_Leu64'
p1133
F0.000976304443907237
tp1134
a(S'Ala57_Gln65'
p1135
F0.001818116161794547
tp1136
a(S'Ala57_Thr66'
p1137
F0.00048701115124171764
tp1138
a(S'Ala57_Asn69'
p1139
F0.0
tp1140
a(S'Ala57_Ile72'
p1141
F0.0
tp1142
a(S'Ala57_Thr73'
p1143
F0.0015396131802331088
tp1144
a(S'Ala57_Ala76'
p1145
F0.0
tp1146
a(S'Ala57_Pro323'
p1147
F0.0
tp1148
a(S'Ala57_Cys327'
p1149
F0.0
tp1150
a(S'Ala57_Arg328'
p1151
F0.0
tp1152
a(S'Ala57_Ser329'
p1153
F0.0
tp1154
a(S'Ala57_Pro330'
p1155
F0.0
tp1156
a(S'Ala57_Asp331'
p1157
F0.0
tp1158
a(S'Ala57_Phe332'
p1159
F0.0
tp1160
a(S'Ala57_Arg333'
p1161
F0.0
tp1162
a(S'Ala57_Ile334'
p1163
F0.0
tp1164
a(S'Ala57_Ala335'
p1165
F0.0
tp1166
a(S'Ala57_Phe336'
p1167
F0.0
tp1168
a(S'Ala57_Gln337'
p1169
F0.0
tp1170
a(S'Ile58_Ala59'
p1171
F0.0
tp1172
a(S'Ile58_Lys60'
p1173
F0.0
tp1174
a(S'Ile58_Phe61'
p1175
F0.0
tp1176
a(S'Ile58_Glu62'
p1177
F0.0
tp1178
a(S'Ile58_Arg63'
p1179
F0.0
tp1180
a(S'Ile58_Leu64'
p1181
F0.0
tp1182
a(S'Ile58_Gln65'
p1183
F0.0
tp1184
a(S'Ile58_Thr66'
p1185
F0.0
tp1186
a(S'Ile58_Val67'
p1187
F0.0006251094570928775
tp1188
a(S'Ile58_Thr68'
p1189
F0.0
tp1190
a(S'Ile58_Asn69'
p1191
F0.0008127846382904736
tp1192
a(S'Ile58_Tyr70'
p1193
F0.0
tp1194
a(S'Ile58_Phe71'
p1195
F0.0004445222805993796
tp1196
a(S'Ile58_Ile72'
p1197
F0.0010000583703015115
tp1198
a(S'Ile58_Thr73'
p1199
F0.0
tp1200
a(S'Ile58_Ser74'
p1201
F0.0
tp1202
a(S'Ile58_Leu75'
p1203
F0.0
tp1204
a(S'Ile58_Ala76'
p1205
F0.0
tp1206
a(S'Cys77_Ile58'
p1207
F0.0008665194458762019
tp1208
a(S'Ile58_Ile127'
p1209
F0.0
tp1210
a(S'Ile58_Lys147'
p1211
F0.0
tp1212
a(S'Ile58_Asn322'
p1213
F0.0
tp1214
a(S'Ile58_Pro323'
p1215
F0.0
tp1216
a(S'Ile58_Tyr326'
p1217
F0.0
tp1218
a(S'Ile58_Cys327'
p1219
F0.0
tp1220
a(S'Ile58_Arg328'
p1221
F0.0012001400969006042
tp1222
a(S'Ile58_Ser329'
p1223
F0.0
tp1224
a(S'Ile58_Asp331'
p1225
F0.0
tp1226
a(S'Ile58_Phe332'
p1227
F0.0
tp1228
a(S'Ile58_Arg333'
p1229
F0.0
tp1230
a(S'Ile58_Ile334'
p1231
F0.0019376130924591783
tp1232
a(S'Ile58_Ala335'
p1233
F0.0
tp1234
a(S'Ile58_Phe336'
p1235
F0.0
tp1236
a(S'Ala59_Lys60'
p1237
F0.0
tp1238
a(S'Ala59_Phe61'
p1239
F0.0
tp1240
a(S'Ala59_Glu62'
p1241
F0.0
tp1242
a(S'Ala59_Arg63'
p1243
F0.00033269768898095287
tp1244
a(S'Ala59_Leu64'
p1245
F0.0
tp1246
a(S'Ala59_Gln65'
p1247
F0.0
tp1248
a(S'Ala59_Thr66'
p1249
F0.0003339483102960285
tp1250
a(S'Ala59_Asn69'
p1251
F0.0
tp1252
a(S'Ala59_Tyr70'
p1253
F0.0
tp1254
a(S'Ala59_Ile72'
p1255
F0.0
tp1256
a(S'Ala59_Thr73'
p1257
F0.0
tp1258
a(S'Ala59_Ala76'
p1259
F0.0
tp1260
a(S'Cys77_Ala59'
p1261
F0.0
tp1262
a(S'Ala59_Lys147'
p1263
F0.0
tp1264
a(S'Ala59_Phe332'
p1265
F0.0
tp1266
a(S'Ala59_Ala335'
p1267
F0.0
tp1268
a(S'Ala59_Phe336'
p1269
F0.0
tp1270
a(S'Lys60_Phe61'
p1271
F0.0
tp1272
a(S'Lys60_Glu62'
p1273
F0.0
tp1274
a(S'Lys60_Arg63'
p1275
F0.0
tp1276
a(S'Lys60_Leu64'
p1277
F0.0
tp1278
a(S'Lys60_Gln65'
p1279
F0.0
tp1280
a(S'Lys60_Thr73'
p1281
F0.0
tp1282
a(S'Lys60_Asp331'
p1283
F0.0
tp1284
a(S'Lys60_Phe332'
p1285
F0.0
tp1286
a(S'Lys60_Ile334'
p1287
F0.0
tp1288
a(S'Lys60_Ala335'
p1289
F0.0
tp1290
a(S'Lys60_Phe336'
p1291
F0.0
tp1292
a(S'Phe61_Glu62'
p1293
F0.00377380840213616
tp1294
a(S'Phe61_Arg63'
p1295
F0.0
tp1296
a(S'Phe61_Leu64'
p1297
F0.0
tp1298
a(S'Phe61_Gln65'
p1299
F0.0
tp1300
a(S'Phe61_Thr66'
p1301
F0.0007174180489052256
tp1302
a(S'Phe61_Asn69'
p1303
F0.0008572429263575746
tp1304
a(S'Phe61_Thr73'
p1305
F0.0
tp1306
a(S'Phe61_Lys147'
p1307
F0.0
tp1308
a(S'Phe61_Ser329'
p1309
F0.0
tp1310
a(S'Phe61_Pro330'
p1311
F0.0
tp1312
a(S'Phe61_Asp331'
p1313
F0.0
tp1314
a(S'Phe61_Phe332'
p1315
F0.0
tp1316
a(S'Phe61_Arg333'
p1317
F0.0
tp1318
a(S'Phe61_Ile334'
p1319
F0.0
tp1320
a(S'Phe61_Ala335'
p1321
F0.0
tp1322
a(S'Phe61_Phe336'
p1323
F0.0
tp1324
a(S'Phe61_Gln337'
p1325
F0.0
tp1326
a(S'Glu62_Arg63'
p1327
F0.0
tp1328
a(S'Glu62_Leu64'
p1329
F0.0
tp1330
a(S'Glu62_Gln65'
p1331
F0.0
tp1332
a(S'Glu62_Thr66'
p1333
F0.0
tp1334
a(S'Glu62_Val67'
p1335
F0.0
tp1336
a(S'Glu62_Asn69'
p1337
F0.0016186103765884793
tp1338
a(S'Glu62_Lys147'
p1339
F0.0
tp1340
a(S'Glu62_Ser329'
p1341
F0.0
tp1342
a(S'Glu62_Asp331'
p1343
F0.0
tp1344
a(S'Glu62_Phe332'
p1345
F0.0
tp1346
a(S'Glu62_Ile334'
p1347
F0.0
tp1348
a(S'Glu62_Ala335'
p1349
F0.0
tp1350
a(S'Arg63_Leu64'
p1351
F0.0021273387109361215
tp1352
a(S'Arg63_Gln65'
p1353
F0.00026674451191033695
tp1354
a(S'Arg63_Thr66'
p1355
F0.0
tp1356
a(S'Arg63_Val67'
p1357
F0.0
tp1358
a(S'Arg63_Thr68'
p1359
F0.0
tp1360
a(S'Arg63_Asn69'
p1361
F0.0
tp1362
a(S'Arg63_Ser329'
p1363
F0.0
tp1364
a(S'Arg63_Pro330'
p1365
F0.00020911066726605598
tp1366
a(S'Arg63_Asp331'
p1367
F0.0
tp1368
a(S'Arg63_Phe332'
p1369
F0.0
tp1370
a(S'Arg63_Arg333'
p1371
F0.0009231846899235413
tp1372
a(S'Arg63_Ile334'
p1373
F0.0
tp1374
a(S'Arg63_Ala335'
p1375
F2.0981673409966094e-06
tp1376
a(S'Leu64_Gln65'
p1377
F0.0
tp1378
a(S'Leu64_Thr66'
p1379
F0.0011589589138173248
tp1380
a(S'Leu64_Val67'
p1381
F0.0019502858767992378
tp1382
a(S'Leu64_Thr68'
p1383
F0.0
tp1384
a(S'Leu64_Asn69'
p1385
F0.0
tp1386
a(S'Leu64_Tyr70'
p1387
F0.0
tp1388
a(S'Leu64_Phe71'
p1389
F0.0
tp1390
a(S'Leu64_Ile72'
p1391
F0.0
tp1392
a(S'Leu64_Thr73'
p1393
F0.0
tp1394
a(S'Leu64_Lys147'
p1395
F0.0
tp1396
a(S'Leu64_Tyr326'
p1397
F0.0
tp1398
a(S'Leu64_Cys327'
p1399
F0.0
tp1400
a(S'Leu64_Arg328'
p1401
F0.0
tp1402
a(S'Leu64_Ser329'
p1403
F0.0
tp1404
a(S'Leu64_Pro330'
p1405
F0.0
tp1406
a(S'Leu64_Asp331'
p1407
F0.0
tp1408
a(S'Leu64_Phe332'
p1409
F0.0
tp1410
a(S'Leu64_Arg333'
p1411
F0.0
tp1412
a(S'Leu64_Ile334'
p1413
F0.0003333917104495347
tp1414
a(S'Leu64_Ala335'
p1415
F0.0012209930174905028
tp1416
a(S'Leu64_Phe336'
p1417
F0.0
tp1418
a(S'Leu64_Gln337'
p1419
F0.0
tp1420
a(S'Gln65_Thr66'
p1421
F0.0
tp1422
a(S'Gln65_Val67'
p1423
F0.0
tp1424
a(S'Gln65_Thr68'
p1425
F0.0010000583703015113
tp1426
a(S'Gln65_Asn69'
p1427
F0.0
tp1428
a(S'Gln65_Tyr70'
p1429
F0.0
tp1430
a(S'Gln65_Phe71'
p1431
F0.0
tp1432
a(S'Gln65_Ile72'
p1433
F0.0
tp1434
a(S'Gln65_Thr73'
p1435
F0.0
tp1436
a(S'Gln65_Tyr141'
p1437
F0.0
tp1438
a(S'Gln65_Leu145'
p1439
F0.0
tp1440
a(S'Gln65_Thr146'
p1441
F0.0
tp1442
a(S'Gln65_Lys147'
p1443
F0.0
tp1444
a(S'Gln65_Ala150'
p1445
F0.0
tp1446
a(S'Gln65_Arg151'
p1447
F0.0006251094570928776
tp1448
a(S'Gln65_Ser329'
p1449
F0.0
tp1450
a(S'Gln65_Asp331'
p1451
F0.0
tp1452
a(S'Gln65_Phe332'
p1453
F0.0
tp1454
a(S'Gln65_Ala335'
p1455
F0.0
tp1456
a(S'Thr66_Val67'
p1457
F0.000916773685132406
tp1458
a(S'Thr66_Thr68'
p1459
F0.0
tp1460
a(S'Thr66_Asn69'
p1461
F0.0
tp1462
a(S'Thr66_Tyr70'
p1463
F0.0
tp1464
a(S'Thr66_Phe71'
p1465
F0.0
tp1466
a(S'Thr66_Ile72'
p1467
F0.0
tp1468
a(S'Thr66_Thr73'
p1469
F0.0
tp1470
a(S'Thr66_Ser74'
p1471
F0.0
tp1472
a(S'Thr66_Ile127'
p1473
F0.0
tp1474
a(S'Thr66_Asp130'
p1475
F0.0
tp1476
a(S'Thr66_Arg131'
p1477
F0.0
tp1478
a(S'Thr66_Ala134'
p1479
F0.0
tp1480
a(S'Thr66_Tyr141'
p1481
F0.0
tp1482
a(S'Thr66_Gln142'
p1483
F0.0
tp1484
a(S'Thr66_Leu145'
p1485
F0.0
tp1486
a(S'Thr66_Thr146'
p1487
F0.0
tp1488
a(S'Thr66_Lys147'
p1489
F0.0
tp1490
a(S'Thr66_Ala150'
p1491
F0.0
tp1492
a(S'Thr66_Arg151'
p1493
F0.0
tp1494
a(S'Thr66_Ile154'
p1495
F0.0
tp1496
a(S'Thr66_Tyr326'
p1497
F0.0
tp1498
a(S'Thr66_Ser329'
p1499
F0.0010000583703015113
tp1500
a(S'Thr66_Asp331'
p1501
F0.0
tp1502
a(S'Thr66_Phe332'
p1503
F0.0
tp1504
a(S'Val67_Thr68'
p1505
F0.0
tp1506
a(S'Val67_Asn69'
p1507
F0.0011084646244128855
tp1508
a(S'Val67_Tyr70'
p1509
F0.0
tp1510
a(S'Val67_Phe71'
p1511
F0.0
tp1512
a(S'Val67_Ile72'
p1513
F0.0
tp1514
a(S'Val67_Thr73'
p1515
F0.00032753388946819503
tp1516
a(S'Val67_Ser74'
p1517
F0.0
tp1518
a(S'Val67_Leu75'
p1519
F0.0
tp1520
a(S'Val67_Thr123'
p1521
F0.0
tp1522
a(S'Val67_Val126'
p1523
F0.0006859144591980094
tp1524
a(S'Val67_Ile127'
p1525
F0.0
tp1526
a(S'Val67_Ala128'
p1527
F0.0
tp1528
a(S'Val67_Val129'
p1529
F0.0
tp1530
a(S'Val67_Asp130'
p1531
F0.0
tp1532
a(S'Val67_Arg131'
p1533
F0.0
tp1534
a(S'Val67_Phe133'
p1535
F0.0
tp1536
a(S'Val67_Ala134'
p1537
F0.0
tp1538
a(S'Val67_Pro138'
p1539
F0.0
tp1540
a(S'Val67_Lys140'
p1541
F0.0005000583737085851
tp1542
a(S'Val67_Tyr141'
p1543
F0.0
tp1544
a(S'Val67_Gln142'
p1545
F0.0
tp1546
a(S'Val67_Ser143'
p1547
F0.0
tp1548
a(S'Val67_Leu144'
p1549
F0.0
tp1550
a(S'Val67_Leu145'
p1551
F0.0
tp1552
a(S'Val67_Thr146'
p1553
F0.0
tp1554
a(S'Val67_Lys147'
p1555
F8.3225705387554e-06
tp1556
a(S'Val67_Asn148'
p1557
F0.0
tp1558
a(S'Val67_Lys149'
p1559
F0.0
tp1560
a(S'Val67_Ala150'
p1561
F0.0
tp1562
a(S'Val67_Arg151'
p1563
F0.0
tp1564
a(S'Val67_Val152'
p1565
F0.0
tp1566
a(S'Val67_Ile153'
p1567
F0.0
tp1568
a(S'Val67_Ile154'
p1569
F0.0
tp1570
a(S'Val67_Phe332'
p1571
F0.0
tp1572
a(S'Thr68_Asn69'
p1573
F0.0
tp1574
a(S'Thr68_Tyr70'
p1575
F0.0
tp1576
a(S'Thr68_Phe71'
p1577
F0.000793553132787557
tp1578
a(S'Thr68_Ile72'
p1579
F0.0005001167610485035
tp1580
a(S'Thr68_Thr73'
p1581
F0.0
tp1582
a(S'Thr68_Ser74'
p1583
F0.0009891264534895084
tp1584
a(S'Thr68_Leu75'
p1585
F0.0
tp1586
a(S'Thr68_Ala76'
p1587
F0.0
tp1588
a(S'Thr68_Thr123'
p1589
F0.0003225014149279985
tp1590
a(S'Thr68_Leu124'
p1591
F0.0
tp1592
a(S'Thr68_Val126'
p1593
F0.0
tp1594
a(S'Thr68_Ile127'
p1595
F0.0
tp1596
a(S'Thr68_Ala128'
p1597
F0.0
tp1598
a(S'Thr68_Val129'
p1599
F0.0
tp1600
a(S'Thr68_Asp130'
p1601
F0.0
tp1602
a(S'Thr68_Arg131'
p1603
F0.0
tp1604
a(S'Thr68_Tyr132'
p1605
F0.0
tp1606
a(S'Thr68_Phe133'
p1607
F0.0
tp1608
a(S'Thr68_Ala134'
p1609
F0.0
tp1610
a(S'Thr68_Ile135'
p1611
F0.0
tp1612
a(S'Thr68_Tyr141'
p1613
F0.0
tp1614
a(S'Thr68_Gln142'
p1615
F0.0
tp1616
a(S'Thr68_Leu145'
p1617
F0.0
tp1618
a(S'Thr68_Thr146'
p1619
F0.0
tp1620
a(S'Thr68_Lys147'
p1621
F0.0
tp1622
a(S'Thr68_Ala150'
p1623
F0.0
tp1624
a(S'Thr68_Arg151'
p1625
F0.0
tp1626
a(S'Thr68_Ile153'
p1627
F0.0
tp1628
a(S'Thr68_Ile154'
p1629
F0.0
tp1630
a(S'Thr68_Tyr219'
p1631
F0.0012297912816032592
tp1632
a(S'Thr68_Ile278'
p1633
F7.392286163021133e-06
tp1634
a(S'Thr68_Ile325'
p1635
F0.0
tp1636
a(S'Thr68_Tyr326'
p1637
F0.0
tp1638
a(S'Thr68_Cys327'
p1639
F0.0
tp1640
a(S'Thr68_Ser329'
p1641
F0.0
tp1642
a(S'Thr68_Phe332'
p1643
F0.0
tp1644
a(S'Asn69_Tyr70'
p1645
F0.0
tp1646
a(S'Asn69_Phe71'
p1647
F0.0
tp1648
a(S'Asn69_Ile72'
p1649
F0.0
tp1650
a(S'Asn69_Thr73'
p1651
F0.0
tp1652
a(S'Asn69_Ser74'
p1653
F0.0
tp1654
a(S'Asn69_Leu75'
p1655
F0.0
tp1656
a(S'Asn69_Ala76'
p1657
F0.0
tp1658
a(S'Cys77_Asn69'
p1659
F0.0
tp1660
a(S'Asn69_Thr123'
p1661
F0.0
tp1662
a(S'Asn69_Val126'
p1663
F0.00025005838052425175
tp1664
a(S'Asn69_Ile127'
p1665
F0.0
tp1666
a(S'Asn69_Asp130'
p1667
F0.0008573430189402918
tp1668
a(S'Asn69_Arg131'
p1669
F0.0
tp1670
a(S'Asn69_Tyr141'
p1671
F0.0
tp1672
a(S'Asn69_Leu145'
p1673
F0.0
tp1674
a(S'Asn69_Thr146'
p1675
F0.0
tp1676
a(S'Asn69_Lys147'
p1677
F0.0
tp1678
a(S'Asn69_Ala150'
p1679
F0.0
tp1680
a(S'Asn69_Arg151'
p1681
F0.0
tp1682
a(S'Asn69_Ile154'
p1683
F0.0004869557936524899
tp1684
a(S'Asn69_Pro323'
p1685
F0.0
tp1686
a(S'Asn69_Ile325'
p1687
F0.0
tp1688
a(S'Asn69_Tyr326'
p1689
F0.0
tp1690
a(S'Asn69_Cys327'
p1691
F0.0
tp1692
a(S'Asn69_Arg328'
p1693
F0.0
tp1694
a(S'Asn69_Ser329'
p1695
F0.0
tp1696
a(S'Asn69_Pro330'
p1697
F0.001222436271648294
tp1698
a(S'Asn69_Asp331'
p1699
F0.0
tp1700
a(S'Asn69_Phe332'
p1701
F0.0
tp1702
a(S'Asn69_Arg333'
p1703
F0.0
tp1704
a(S'Asn69_Ala335'
p1705
F0.0
tp1706
a(S'Asn69_Phe336'
p1707
F0.0
tp1708
a(S'Tyr70_Phe71'
p1709
F0.0
tp1710
a(S'Tyr70_Ile72'
p1711
F0.0
tp1712
a(S'Tyr70_Thr73'
p1713
F0.0
tp1714
a(S'Tyr70_Ser74'
p1715
F0.0009446272733465041
tp1716
a(S'Tyr70_Leu75'
p1717
F0.0
tp1718
a(S'Tyr70_Ala76'
p1719
F0.0
tp1720
a(S'Cys77_Tyr70'
p1721
F0.0
tp1722
a(S'Ala78_Tyr70'
p1723
F0.0
tp1724
a(S'Tyr70_Ala119'
p1725
F2.2668753729495532e-05
tp1726
a(S'Tyr70_Thr123'
p1727
F0.0
tp1728
a(S'Tyr70_Leu124'
p1729
F0.0
tp1730
a(S'Tyr70_Val126'
p1731
F0.0
tp1732
a(S'Tyr70_Ile127'
p1733
F0.0
tp1734
a(S'Tyr70_Asp130'
p1735
F0.0
tp1736
a(S'Tyr70_Tyr141'
p1737
F0.0004445222805993796
tp1738
a(S'Tyr70_Leu145'
p1739
F0.0
tp1740
a(S'Tyr70_Thr146'
p1741
F0.0
tp1742
a(S'Tyr70_Lys147'
p1743
F0.0
tp1744
a(S'Tyr70_Asn148'
p1745
F0.0
tp1746
a(S'Tyr70_Lys149'
p1747
F0.0
tp1748
a(S'Tyr70_Ala150'
p1749
F0.0
tp1750
a(S'Tyr70_Arg151'
p1751
F0.0
tp1752
a(S'Tyr70_Val152'
p1753
F0.0
tp1754
a(S'Tyr70_Ile153'
p1755
F0.0
tp1756
a(S'Tyr70_Ile154'
p1757
F0.0
tp1758
a(S'Tyr70_Leu155'
p1759
F0.0
tp1760
a(S'Tyr70_Met156'
p1761
F0.0
tp1762
a(S'Tyr70_Val157'
p1763
F0.0
tp1764
a(S'Tyr70_Trp158'
p1765
F0.0
tp1766
a(S'Tyr70_Tyr326'
p1767
F0.0
tp1768
a(S'Tyr70_Cys327'
p1769
F0.0
tp1770
a(S'Tyr70_Phe332'
p1771
F0.0
tp1772
a(S'Phe71_Ile72'
p1773
F0.0010370108533203574
tp1774
a(S'Phe71_Thr73'
p1775
F0.0
tp1776
a(S'Phe71_Ser74'
p1777
F0.0
tp1778
a(S'Phe71_Leu75'
p1779
F0.0
tp1780
a(S'Phe71_Ala76'
p1781
F0.0
tp1782
a(S'Cys77_Phe71'
p1783
F0.0
tp1784
a(S'Ala78_Phe71'
p1785
F0.0
tp1786
a(S'Asp79_Phe71'
p1787
F0.0
tp1788
a(S'Phe71_Ala119'
p1789
F1.0141084834419905e-05
tp1790
a(S'Phe71_Ser120'
p1791
F0.0
tp1792
a(S'Phe71_Ile121'
p1793
F0.0
tp1794
a(S'Phe71_Glu122'
p1795
F0.0
tp1796
a(S'Phe71_Thr123'
p1797
F0.0
tp1798
a(S'Phe71_Leu124'
p1799
F0.0
tp1800
a(S'Phe71_Cys125'
p1801
F0.0
tp1802
a(S'Phe71_Val126'
p1803
F0.0
tp1804
a(S'Phe71_Ile127'
p1805
F0.0006401120840631064
tp1806
a(S'Phe71_Ala128'
p1807
F0.0
tp1808
a(S'Phe71_Val129'
p1809
F0.0
tp1810
a(S'Phe71_Asp130'
p1811
F0.0
tp1812
a(S'Phe71_Arg131'
p1813
F0.0
tp1814
a(S'Phe71_Tyr132'
p1815
F0.0
tp1816
a(S'Phe71_Phe133'
p1817
F0.0
tp1818
a(S'Phe71_Ala134'
p1819
F0.0
tp1820
a(S'Phe71_Tyr141'
p1821
F0.0
tp1822
a(S'Phe71_Leu144'
p1823
F0.0
tp1824
a(S'Phe71_Leu145'
p1825
F0.0
tp1826
a(S'Phe71_Thr146'
p1827
F0.0
tp1828
a(S'Phe71_Lys147'
p1829
F0.0
tp1830
a(S'Phe71_Asn148'
p1831
F0.0
tp1832
a(S'Phe71_Lys149'
p1833
F0.0
tp1834
a(S'Phe71_Ala150'
p1835
F0.0
tp1836
a(S'Phe71_Arg151'
p1837
F0.0
tp1838
a(S'Phe71_Val152'
p1839
F0.0
tp1840
a(S'Phe71_Ile153'
p1841
F0.0
tp1842
a(S'Phe71_Ile154'
p1843
F8.138112380547478e-07
tp1844
a(S'Phe71_Leu155'
p1845
F0.0
tp1846
a(S'Phe71_Met156'
p1847
F0.0
tp1848
a(S'Phe71_Val157'
p1849
F0.0
tp1850
a(S'Phe71_Trp158'
p1851
F0.00033341117403233567
tp1852
a(S'Phe71_Asn322'
p1853
F0.0018402148152475927
tp1854
a(S'Phe71_Tyr326'
p1855
F0.0
tp1856
a(S'Phe71_Cys327'
p1857
F0.0
tp1858
a(S'Phe71_Phe332'
p1859
F0.0
tp1860
a(S'Ile72_Thr73'
p1861
F0.0
tp1862
a(S'Ile72_Ser74'
p1863
F0.0018948474384660225
tp1864
a(S'Ile72_Leu75'
p1865
F0.0
tp1866
a(S'Ile72_Ala76'
p1867
F0.0
tp1868
a(S'Cys77_Ile72'
p1869
F0.0
tp1870
a(S'Ala78_Ile72'
p1871
F0.0
tp1872
a(S'Asp79_Ile72'
p1873
F0.0
tp1874
a(S'Leu80_Ile72'
p1875
F0.0
tp1876
a(S'Ile72_Ala119'
p1877
F0.0
tp1878
a(S'Ile72_Ser120'
p1879
F0.0012634528700172722
tp1880
a(S'Ile72_Glu122'
p1881
F0.00016674452554744492
tp1882
a(S'Ile72_Thr123'
p1883
F0.0
tp1884
a(S'Ile72_Leu124'
p1885
F0.0
tp1886
a(S'Ile72_Cys125'
p1887
F0.0
tp1888
a(S'Ile72_Val126'
p1889
F0.0
tp1890
a(S'Ile72_Ile127'
p1891
F0.0
tp1892
a(S'Ile72_Ala128'
p1893
F0.0
tp1894
a(S'Ile72_Asp130'
p1895
F0.0
tp1896
a(S'Ile72_Arg131'
p1897
F0.0
tp1898
a(S'Ile72_Tyr141'
p1899
F0.0
tp1900
a(S'Ile72_Lys147'
p1901
F0.0
tp1902
a(S'Ile72_Ala150'
p1903
F0.0
tp1904
a(S'Ile72_Ile154'
p1905
F0.0
tp1906
a(S'Ile72_Trp158'
p1907
F0.0
tp1908
a(S'Ile72_Tyr219'
p1909
F2.5622331683124186e-06
tp1910
a(S'Ile72_Ile278'
p1911
F0.00032891665393343573
tp1912
a(S'Ile72_Ser319'
p1913
F0.0
tp1914
a(S'Ile72_Phe321'
p1915
F0.0
tp1916
a(S'Ile72_Asn322'
p1917
F0.0005334267367192554
tp1918
a(S'Ile72_Pro323'
p1919
F0.0
tp1920
a(S'Ile72_Leu324'
p1921
F0.0
tp1922
a(S'Ile72_Ile325'
p1923
F0.0
tp1924
a(S'Ile72_Tyr326'
p1925
F0.0
tp1926
a(S'Ile72_Cys327'
p1927
F0.0
tp1928
a(S'Ile72_Arg328'
p1929
F0.0
tp1930
a(S'Ile72_Ser329'
p1931
F0.0
tp1932
a(S'Ile72_Phe332'
p1933
F0.0
tp1934
a(S'Ile72_Phe336'
p1935
F0.0
tp1936
a(S'Thr73_Ser74'
p1937
F0.0
tp1938
a(S'Thr73_Leu75'
p1939
F0.0
tp1940
a(S'Thr73_Ala76'
p1941
F0.0
tp1942
a(S'Cys77_Thr73'
p1943
F0.0
tp1944
a(S'Ala78_Thr73'
p1945
F0.0
tp1946
a(S'Asp79_Thr73'
p1947
F0.00030004899954907293
tp1948
a(S'Leu80_Thr73'
p1949
F0.0009091970431065184
tp1950
a(S'Val81_Thr73'
p1951
F0.0
tp1952
a(S'Thr73_Ala119'
p1953
F0.0
tp1954
a(S'Thr73_Ser120'
p1955
F0.0
tp1956
a(S'Thr73_Thr123'
p1957
F0.0
tp1958
a(S'Thr73_Leu124'
p1959
F0.0
tp1960
a(S'Thr73_Ile127'
p1961
F0.0
tp1962
a(S'Thr73_Lys147'
p1963
F0.0
tp1964
a(S'Thr73_Ala150'
p1965
F0.0
tp1966
a(S'Thr73_Arg151'
p1967
F0.0
tp1968
a(S'Thr73_Ile154'
p1969
F0.0
tp1970
a(S'Thr73_Val157'
p1971
F0.0
tp1972
a(S'Thr73_Trp158'
p1973
F0.0
tp1974
a(S'Thr73_Asn322'
p1975
F0.0
tp1976
a(S'Thr73_Pro323'
p1977
F0.0
tp1978
a(S'Thr73_Tyr326'
p1979
F0.0
tp1980
a(S'Thr73_Cys327'
p1981
F0.0
tp1982
a(S'Thr73_Phe332'
p1983
F0.0006364750835854757
tp1984
a(S'Ser74_Leu75'
p1985
F0.0
tp1986
a(S'Ser74_Ala76'
p1987
F0.0
tp1988
a(S'Cys77_Ser74'
p1989
F0.00033341117403233567
tp1990
a(S'Ala78_Ser74'
p1991
F0.0
tp1992
a(S'Asp79_Ser74'
p1993
F0.0
tp1994
a(S'Leu80_Ser74'
p1995
F0.0
tp1996
a(S'Val81_Ser74'
p1997
F0.00026674451191033695
tp1998
a(S'Met82_Ser74'
p1999
F0.0
tp2000
a(S'Ser74_Leu115'
p2001
F0.0003617376017565912
tp2002
a(S'Ser74_Cys116'
p2003
F0.0
tp2004
a(S'Ser74_Val117'
p2005
F0.0
tp2006
a(S'Ser74_Thr118'
p2007
F0.0
tp2008
a(S'Ser74_Ala119'
p2009
F0.0005534460690410536
tp2010
a(S'Ser74_Ser120'
p2011
F0.0
tp2012
a(S'Ser74_Ile121'
p2013
F0.0
tp2014
a(S'Ser74_Glu122'
p2015
F0.0
tp2016
a(S'Ser74_Thr123'
p2017
F0.0031428596700105206
tp2018
a(S'Ser74_Leu124'
p2019
F0.0005979886800968589
tp2020
a(S'Ser74_Cys125'
p2021
F0.0
tp2022
a(S'Ser74_Val126'
p2023
F0.0
tp2024
a(S'Ser74_Ile127'
p2025
F0.0
tp2026
a(S'Ser74_Lys147'
p2027
F0.0
tp2028
a(S'Ser74_Ala150'
p2029
F0.0
tp2030
a(S'Ser74_Arg151'
p2031
F0.0
tp2032
a(S'Ser74_Val152'
p2033
F0.0
tp2034
a(S'Ser74_Ile153'
p2035
F0.0
tp2036
a(S'Ser74_Ile154'
p2037
F0.0
tp2038
a(S'Ser74_Leu155'
p2039
F0.0
tp2040
a(S'Ser74_Met156'
p2041
F0.0
tp2042
a(S'Ser74_Val157'
p2043
F0.0
tp2044
a(S'Ser74_Trp158'
p2045
F0.0
tp2046
a(S'Ser74_Ile159'
p2047
F0.0
tp2048
a(S'Ser74_Ser161'
p2049
F0.0
tp2050
a(S'Ser74_Ser319'
p2051
F0.0
tp2052
a(S'Ser74_Asn322'
p2053
F0.0
tp2054
a(S'Ser74_Tyr326'
p2055
F0.0003951029459755265
tp2056
a(S'Ser74_Cys327'
p2057
F0.0
tp2058
a(S'Ser74_Phe332'
p2059
F0.0
tp2060
a(S'Leu75_Ala76'
p2061
F0.0005000583737085851
tp2062
a(S'Cys77_Leu75'
p2063
F0.0
tp2064
a(S'Ala78_Leu75'
p2065
F0.0
tp2066
a(S'Asp79_Leu75'
p2067
F3.5599629764887356e-05
tp2068
a(S'Leu80_Leu75'
p2069
F0.0
tp2070
a(S'Val81_Leu75'
p2071
F0.0
tp2072
a(S'Met82_Leu75'
p2073
F0.00045010508494365336
tp2074
a(S'Gly83_Leu75'
p2075
F0.0
tp2076
a(S'Leu75_Leu115'
p2077
F0.0007638592841068743
tp2078
a(S'Leu75_Cys116'
p2079
F0.0
tp2080
a(S'Leu75_Val117'
p2081
F0.0
tp2082
a(S'Leu75_Thr118'
p2083
F0.0
tp2084
a(S'Leu75_Ala119'
p2085
F0.0005000583737085851
tp2086
a(S'Leu75_Ser120'
p2087
F0.0
tp2088
a(S'Leu75_Ile121'
p2089
F0.0
tp2090
a(S'Leu75_Glu122'
p2091
F0.0
tp2092
a(S'Leu75_Thr123'
p2093
F0.0
tp2094
a(S'Leu75_Leu124'
p2095
F0.0
tp2096
a(S'Leu75_Cys125'
p2097
F0.0
tp2098
a(S'Leu75_Val126'
p2099
F0.0
tp2100
a(S'Leu75_Ile127'
p2101
F0.0
tp2102
a(S'Leu75_Ala128'
p2103
F0.0
tp2104
a(S'Leu75_Ile154'
p2105
F0.0
tp2106
a(S'Leu75_Val157'
p2107
F0.0
tp2108
a(S'Leu75_Trp158'
p2109
F0.0005556528507492246
tp2110
a(S'Leu75_Ser161'
p2111
F0.0
tp2112
a(S'Leu75_Met215'
p2113
F0.0
tp2114
a(S'Leu75_Tyr219'
p2115
F0.002315515548635895
tp2116
a(S'Leu75_Ile278'
p2117
F0.0
tp2118
a(S'Leu75_Phe282'
p2119
F0.0
tp2120
a(S'Leu75_Trp286'
p2121
F0.0
tp2122
a(S'Leu75_Gly315'
p2123
F0.0
tp2124
a(S'Leu75_Asn318'
p2125
F0.0
tp2126
a(S'Leu75_Ser319'
p2127
F0.0
tp2128
a(S'Leu75_Gly320'
p2129
F0.0
tp2130
a(S'Leu75_Phe321'
p2131
F0.0
tp2132
a(S'Leu75_Asn322'
p2133
F0.0
tp2134
a(S'Leu75_Pro323'
p2135
F0.0
tp2136
a(S'Leu75_Leu324'
p2137
F0.0
tp2138
a(S'Leu75_Ile325'
p2139
F0.0
tp2140
a(S'Leu75_Tyr326'
p2141
F0.0
tp2142
a(S'Leu75_Cys327'
p2143
F0.0
tp2144
a(S'Leu75_Phe332'
p2145
F0.0
tp2146
a(S'Cys77_Ala76'
p2147
F0.0008334306228476415
tp2148
a(S'Ala78_Ala76'
p2149
F0.0
tp2150
a(S'Asp79_Ala76'
p2151
F0.0
tp2152
a(S'Leu80_Ala76'
p2153
F0.0
tp2154
a(S'Val81_Ala76'
p2155
F0.0
tp2156
a(S'Met82_Ala76'
p2157
F0.0
tp2158
a(S'Gly83_Ala76'
p2159
F0.0
tp2160
a(S'Leu84_Ala76'
p2161
F0.0
tp2162
a(S'Ala76_Cys116'
p2163
F0.001500087555452267
tp2164
a(S'Ala76_Ala119'
p2165
F0.0
tp2166
a(S'Ala76_Ser120'
p2167
F0.0
tp2168
a(S'Ala76_Ile121'
p2169
F0.0
tp2170
a(S'Ala76_Thr123'
p2171
F0.0
tp2172
a(S'Ala76_Leu124'
p2173
F0.0
tp2174
a(S'Ala76_Ile127'
p2175
F0.0
tp2176
a(S'Ala76_Ile154'
p2177
F0.0
tp2178
a(S'Ala76_Val157'
p2179
F0.0
tp2180
a(S'Ala76_Trp158'
p2181
F0.0
tp2182
a(S'Ala76_Asn318'
p2183
F0.0
tp2184
a(S'Ala76_Ser319'
p2185
F0.0
tp2186
a(S'Ala76_Gly320'
p2187
F0.0006487622473612573
tp2188
a(S'Ala76_Phe321'
p2189
F0.0
tp2190
a(S'Ala76_Asn322'
p2191
F0.0
tp2192
a(S'Ala76_Pro323'
p2193
F0.0
tp2194
a(S'Ala76_Leu324'
p2195
F0.0
tp2196
a(S'Ala76_Tyr326'
p2197
F0.0005556528507492247
tp2198
a(S'Ala76_Cys327'
p2199
F0.0
tp2200
a(S'Ala76_Phe332'
p2201
F0.0
tp2202
a(S'Ala76_Phe336'
p2203
F0.0
tp2204
a(S'Ala78_Cys77'
p2205
F0.0
tp2206
a(S'Asp79_Cys77'
p2207
F0.0
tp2208
a(S'Leu80_Cys77'
p2209
F0.0
tp2210
a(S'Val81_Cys77'
p2211
F0.0
tp2212
a(S'Met82_Cys77'
p2213
F0.0
tp2214
a(S'Gly83_Cys77'
p2215
F0.0
tp2216
a(S'Leu84_Cys77'
p2217
F0.0
tp2218
a(S'Ala85_Cys77'
p2219
F0.0
tp2220
a(S'Val86_Cys77'
p2221
F0.0013086403587738726
tp2222
a(S'Cys77_Ile112'
p2223
F0.0
tp2224
a(S'Cys77_Leu115'
p2225
F0.0
tp2226
a(S'Cys77_Cys116'
p2227
F0.0
tp2228
a(S'Cys77_Val117'
p2229
F0.0
tp2230
a(S'Cys77_Ala119'
p2231
F0.0
tp2232
a(S'Cys77_Ser120'
p2233
F0.0
tp2234
a(S'Cys77_Thr123'
p2235
F0.0
tp2236
a(S'Cys77_Ile127'
p2237
F0.0
tp2238
a(S'Cys77_Ile154'
p2239
F0.0
tp2240
a(S'Cys77_Val157'
p2241
F0.0
tp2242
a(S'Cys77_Trp158'
p2243
F0.0
tp2244
a(S'Cys77_Ser319'
p2245
F0.0
tp2246
a(S'Cys77_Asn322'
p2247
F0.0
tp2248
a(S'Cys77_Pro323'
p2249
F0.0
tp2250
a(S'Cys77_Cys327'
p2251
F0.0
tp2252
a(S'Asp79_Ala78'
p2253
F0.0
tp2254
a(S'Leu80_Ala78'
p2255
F0.0
tp2256
a(S'Val81_Ala78'
p2257
F0.0
tp2258
a(S'Met82_Ala78'
p2259
F0.0
tp2260
a(S'Gly83_Ala78'
p2261
F0.0
tp2262
a(S'Leu84_Ala78'
p2263
F0.0
tp2264
a(S'Ala85_Ala78'
p2265
F0.0
tp2266
a(S'Val86_Ala78'
p2267
F0.0018573596737747448
tp2268
a(S'Val87_Ala78'
p2269
F0.0
tp2270
a(S'Ala78_Ile112'
p2271
F0.0001667250540083023
tp2272
a(S'Ala78_Asp113'
p2273
F0.0
tp2274
a(S'Ala78_Val114'
p2275
F0.0011836194657743118
tp2276
a(S'Ala78_Leu115'
p2277
F0.0
tp2278
a(S'Ala78_Cys116'
p2279
F0.0
tp2280
a(S'Ala78_Val117'
p2281
F0.0
tp2282
a(S'Ala78_Thr118'
p2283
F0.0
tp2284
a(S'Ala78_Ala119'
p2285
F0.0
tp2286
a(S'Ala78_Ser120'
p2287
F0.0
tp2288
a(S'Ala78_Ile121'
p2289
F0.0
tp2290
a(S'Ala78_Glu122'
p2291
F0.0
tp2292
a(S'Ala78_Thr123'
p2293
F0.001333488996556227
tp2294
a(S'Ala78_Leu124'
p2295
F0.0
tp2296
a(S'Ala78_Ile127'
p2297
F0.0
tp2298
a(S'Ala78_Ile154'
p2299
F0.0
tp2300
a(S'Ala78_Val157'
p2301
F0.0
tp2302
a(S'Ala78_Trp158'
p2303
F0.0
tp2304
a(S'Ala78_Ser161'
p2305
F0.0
tp2306
a(S'Ala78_Trp286'
p2307
F0.0
tp2308
a(S'Ala78_Gly315'
p2309
F0.0
tp2310
a(S'Ala78_Tyr316'
p2311
F0.0
tp2312
a(S'Ala78_Asn318'
p2313
F0.0005001167610485035
tp2314
a(S'Ala78_Ser319'
p2315
F0.0
tp2316
a(S'Ala78_Gly320'
p2317
F0.0
tp2318
a(S'Ala78_Asn322'
p2319
F0.0
tp2320
a(S'Ala78_Pro323'
p2321
F0.0
tp2322
a(S'Leu80_Asp79'
p2323
F0.0
tp2324
a(S'Val81_Asp79'
p2325
F0.0
tp2326
a(S'Met82_Asp79'
p2327
F0.0
tp2328
a(S'Gly83_Asp79'
p2329
F0.0
tp2330
a(S'Leu84_Asp79'
p2331
F0.0
tp2332
a(S'Ala85_Asp79'
p2333
F0.0
tp2334
a(S'Val86_Asp79'
p2335
F0.0
tp2336
a(S'Val87_Asp79'
p2337
F0.0018573596737747448
tp2338
a(S'Pro88_Asp79'
p2339
F0.0
tp2340
a(S'Asp79_Ile112'
p2341
F0.0
tp2342
a(S'Asp79_Asp113'
p2343
F0.0013167924161151423
tp2344
a(S'Asp79_Leu115'
p2345
F0.0006390007783616086
tp2346
a(S'Asp79_Cys116'
p2347
F0.0
tp2348
a(S'Asp79_Val117'
p2349
F0.0
tp2350
a(S'Asp79_Thr118'
p2351
F0.0
tp2352
a(S'Asp79_Ala119'
p2353
F0.0
tp2354
a(S'Asp79_Ser120'
p2355
F0.0
tp2356
a(S'Asp79_Ile121'
p2357
F0.0
tp2358
a(S'Asp79_Glu122'
p2359
F0.0
tp2360
a(S'Asp79_Thr123'
p2361
F0.0
tp2362
a(S'Asp79_Leu124'
p2363
F0.0
tp2364
a(S'Asp79_Ile127'
p2365
F0.0
tp2366
a(S'Asp79_Trp158'
p2367
F0.0004445222805993796
tp2368
a(S'Asp79_Phe282'
p2369
F0.0013036347652900405
tp2370
a(S'Asp79_Trp286'
p2371
F0.0
tp2372
a(S'Asp79_Ile314'
p2373
F0.0
tp2374
a(S'Asp79_Gly315'
p2375
F0.0
tp2376
a(S'Asp79_Tyr316'
p2377
F0.0
tp2378
a(S'Asp79_Val317'
p2379
F0.0
tp2380
a(S'Asp79_Asn318'
p2381
F0.0
tp2382
a(S'Asp79_Ser319'
p2383
F0.0
tp2384
a(S'Asp79_Gly320'
p2385
F0.0
tp2386
a(S'Asp79_Phe321'
p2387
F0.0
tp2388
a(S'Asp79_Asn322'
p2389
F0.0
tp2390
a(S'Asp79_Pro323'
p2391
F0.0
tp2392
a(S'Asp79_Leu324'
p2393
F0.0
tp2394
a(S'Asp79_Ile325'
p2395
F0.0
tp2396
a(S'Asp79_Tyr326'
p2397
F0.0
tp2398
a(S'Asp79_Cys327'
p2399
F0.0
tp2400
a(S'Val81_Leu80'
p2401
F7.459807630380504e-06
tp2402
a(S'Met82_Leu80'
p2403
F0.0
tp2404
a(S'Gly83_Leu80'
p2405
F0.0
tp2406
a(S'Leu84_Leu80'
p2407
F0.0
tp2408
a(S'Ala85_Leu80'
p2409
F0.0
tp2410
a(S'Val86_Leu80'
p2411
F0.0
tp2412
a(S'Val87_Leu80'
p2413
F0.0
tp2414
a(S'Pro88_Leu80'
p2415
F0.0
tp2416
a(S'Leu80_Ile112'
p2417
F0.0
tp2418
a(S'Leu80_Leu115'
p2419
F8.781527885600617e-06
tp2420
a(S'Leu80_Cys116'
p2421
F0.0
tp2422
a(S'Leu80_Val117'
p2423
F0.0
tp2424
a(S'Leu80_Ala119'
p2425
F0.0005000583737085851
tp2426
a(S'Leu80_Ser120'
p2427
F0.0
tp2428
a(S'Leu80_Trp158'
p2429
F0.0
tp2430
a(S'Leu80_Tyr316'
p2431
F0.0
tp2432
a(S'Leu80_Asn318'
p2433
F0.0
tp2434
a(S'Leu80_Ser319'
p2435
F0.001882572701020556
tp2436
a(S'Leu80_Gly320'
p2437
F0.0
tp2438
a(S'Leu80_Phe321'
p2439
F0.0
tp2440
a(S'Leu80_Asn322'
p2441
F0.0
tp2442
a(S'Leu80_Pro323'
p2443
F0.0
tp2444
a(S'Met82_Val81'
p2445
F0.0
tp2446
a(S'Gly83_Val81'
p2447
F0.0
tp2448
a(S'Leu84_Val81'
p2449
F0.0
tp2450
a(S'Ala85_Val81'
p2451
F0.0
tp2452
a(S'Val86_Val81'
p2453
F0.0
tp2454
a(S'Val87_Val81'
p2455
F0.0006475123429431464
tp2456
a(S'Pro88_Val81'
p2457
F0.0
tp2458
a(S'Phe89_Val81'
p2459
F0.0
tp2460
a(S'Val81_Gly90'
p2461
F0.0
tp2462
a(S'Val81_Trp105'
p2463
F0.0011663781251928412
tp2464
a(S'Val81_Phe108'
p2465
F0.0006596101551140966
tp2466
a(S'Val81_Trp109'
p2467
F0.0
tp2468
a(S'Val81_Ser111'
p2469
F0.0002766453048154304
tp2470
a(S'Val81_Ile112'
p2471
F0.0003824876228895429
tp2472
a(S'Val81_Asp113'
p2473
F0.0009773868213395068
tp2474
a(S'Val81_Val114'
p2475
F0.0003307245767659363
tp2476
a(S'Val81_Leu115'
p2477
F0.0
tp2478
a(S'Val81_Cys116'
p2479
F0.0
tp2480
a(S'Val81_Val117'
p2481
F0.0
tp2482
a(S'Val81_Ala119'
p2483
F0.0003333917104495347
tp2484
a(S'Val81_Ser120'
p2485
F0.0
tp2486
a(S'Val81_Trp158'
p2487
F0.0
tp2488
a(S'Val81_Phe166'
p2489
F0.0
tp2490
a(S'Val81_Tyr316'
p2491
F0.0
tp2492
a(S'Val81_Ser319'
p2493
F0.0
tp2494
a(S'Val81_Gly320'
p2495
F0.0
tp2496
a(S'Gly83_Met82'
p2497
F0.0
tp2498
a(S'Leu84_Met82'
p2499
F0.0
tp2500
a(S'Ala85_Met82'
p2501
F0.0
tp2502
a(S'Val86_Met82'
p2503
F0.0
tp2504
a(S'Val87_Met82'
p2505
F0.0
tp2506
a(S'Pro88_Met82'
p2507
F0.0
tp2508
a(S'Phe89_Met82'
p2509
F0.0
tp2510
a(S'Met82_Gly90'
p2511
F0.0
tp2512
a(S'Met82_Ala91'
p2513
F0.0006350318294276854
tp2514
a(S'Met82_Trp109'
p2515
F0.0
tp2516
a(S'Met82_Thr110'
p2517
F0.0
tp2518
a(S'Met82_Ser111'
p2519
F0.0
tp2520
a(S'Met82_Ile112'
p2521
F0.0
tp2522
a(S'Met82_Asp113'
p2523
F0.0
tp2524
a(S'Met82_Val114'
p2525
F0.0
tp2526
a(S'Met82_Leu115'
p2527
F0.0012002802265164082
tp2528
a(S'Met82_Cys116'
p2529
F8.740625243443853e-05
tp2530
a(S'Met82_Val117'
p2531
F0.0
tp2532
a(S'Met82_Thr118'
p2533
F0.0
tp2534
a(S'Met82_Ala119'
p2535
F0.0
tp2536
a(S'Met82_Ser120'
p2537
F0.0
tp2538
a(S'Met82_Ile121'
p2539
F0.0
tp2540
a(S'Met82_Glu122'
p2541
F0.0
tp2542
a(S'Met82_Thr123'
p2543
F0.0
tp2544
a(S'Met82_Leu124'
p2545
F0.0
tp2546
a(S'Met82_Trp158'
p2547
F0.0
tp2548
a(S'Met82_Ser161'
p2549
F0.0
tp2550
a(S'Met82_Trp286'
p2551
F0.0016645739269234986
tp2552
a(S'Met82_Phe290'
p2553
F0.0026293859183820142
tp2554
a(S'Met82_Asn312'
p2555
F0.0
tp2556
a(S'Met82_Trp313'
p2557
F0.0
tp2558
a(S'Met82_Ile314'
p2559
F0.0
tp2560
a(S'Met82_Gly315'
p2561
F0.0
tp2562
a(S'Met82_Tyr316'
p2563
F0.0
tp2564
a(S'Met82_Val317'
p2565
F0.0
tp2566
a(S'Met82_Asn318'
p2567
F0.0
tp2568
a(S'Met82_Ser319'
p2569
F0.0
tp2570
a(S'Met82_Gly320'
p2571
F0.0006001401132582042
tp2572
a(S'Met82_Phe321'
p2573
F0.0
tp2574
a(S'Met82_Asn322'
p2575
F0.0
tp2576
a(S'Leu84_Gly83'
p2577
F0.0
tp2578
a(S'Ala85_Gly83'
p2579
F0.0
tp2580
a(S'Val86_Gly83'
p2581
F0.0
tp2582
a(S'Val87_Gly83'
p2583
F0.0
tp2584
a(S'Pro88_Gly83'
p2585
F0.0006667444982781134
tp2586
a(S'Phe89_Gly83'
p2587
F0.0
tp2588
a(S'Gly83_Gly90'
p2589
F0.0
tp2590
a(S'Gly83_Ala91'
p2591
F0.0
tp2592
a(S'Gly83_Trp109'
p2593
F0.0
tp2594
a(S'Gly83_Ile112'
p2595
F0.0
tp2596
a(S'Gly83_Asp113'
p2597
F0.0
tp2598
a(S'Gly83_Cys116'
p2599
F0.0006112181358241469
tp2600
a(S'Gly83_Val117'
p2601
F0.0
tp2602
a(S'Gly83_Ser120'
p2603
F0.0
tp2604
a(S'Gly83_Trp313'
p2605
F0.00044454823204311423
tp2606
a(S'Gly83_Gly315'
p2607
F0.0
tp2608
a(S'Gly83_Tyr316'
p2609
F0.0
tp2610
a(S'Gly83_Val317'
p2611
F0.00025005838052425175
tp2612
a(S'Gly83_Asn318'
p2613
F0.0
tp2614
a(S'Gly83_Ser319'
p2615
F0.0
tp2616
a(S'Gly83_Gly320'
p2617
F0.0
tp2618
a(S'Ala85_Leu84'
p2619
F0.0001093763652182112
tp2620
a(S'Val86_Leu84'
p2621
F0.0
tp2622
a(S'Val87_Leu84'
p2623
F0.0
tp2624
a(S'Pro88_Leu84'
p2625
F0.0
tp2626
a(S'Phe89_Leu84'
p2627
F0.0
tp2628
a(S'Leu84_Gly90'
p2629
F0.0
tp2630
a(S'Leu84_Ala91'
p2631
F0.0
tp2632
a(S'Leu84_Trp105'
p2633
F0.0
tp2634
a(S'Leu84_Trp109'
p2635
F0.0
tp2636
a(S'Leu84_Ile112'
p2637
F0.0
tp2638
a(S'Leu84_Asp113'
p2639
F0.0
tp2640
a(S'Leu84_Cys116'
p2641
F0.0
tp2642
a(S'Leu84_Trp313'
p2643
F0.0009661524900597444
tp2644
a(S'Leu84_Tyr316'
p2645
F0.00033352683861191223
tp2646
a(S'Leu84_Ser319'
p2647
F0.0
tp2648
a(S'Val86_Ala85'
p2649
F0.0003333917104495347
tp2650
a(S'Val87_Ala85'
p2651
F0.0
tp2652
a(S'Pro88_Ala85'
p2653
F4.749723486039476e-06
tp2654
a(S'Phe89_Ala85'
p2655
F0.0
tp2656
a(S'Ala85_Gly90'
p2657
F0.0
tp2658
a(S'Ala85_Ala91'
p2659
F0.0
tp2660
a(S'Ala85_Ala92'
p2661
F0.0
tp2662
a(S'Ala85_His93'
p2663
F0.0008001401050788833
tp2664
a(S'Ala85_Trp99'
p2665
F0.00048011209060656325
tp2666
a(S'Ala85_Phe101'
p2667
F0.0
tp2668
a(S'Ala85_Trp105'
p2669
F0.0
tp2670
a(S'Ala85_Cys106'
p2671
F0.0
tp2672
a(S'Ala85_Phe108'
p2673
F0.0
tp2674
a(S'Ala85_Trp109'
p2675
F0.0
tp2676
a(S'Ala85_Thr110'
p2677
F0.0
tp2678
a(S'Ala85_Ser111'
p2679
F0.0
tp2680
a(S'Ala85_Ile112'
p2681
F0.0
tp2682
a(S'Ala85_Asp113'
p2683
F0.0
tp2684
a(S'Ala85_Val114'
p2685
F0.0
tp2686
a(S'Ala85_Leu115'
p2687
F0.0
tp2688
a(S'Ala85_Cys116'
p2689
F0.000500058373708585
tp2690
a(S'Ala85_Phe166'
p2691
F0.0
tp2692
a(S'Ala85_Trp313'
p2693
F0.0028540591197372487
tp2694
a(S'Ala85_Tyr316'
p2695
F0.0
tp2696
a(S'Val87_Val86'
p2697
F0.0
tp2698
a(S'Pro88_Val86'
p2699
F0.0
tp2700
a(S'Phe89_Val86'
p2701
F0.0
tp2702
a(S'Val86_Gly90'
p2703
F0.0
tp2704
a(S'Val86_Ala91'
p2705
F0.0
tp2706
a(S'Val86_Ala92'
p2707
F0.0
tp2708
a(S'Val86_His93'
p2709
F0.00026674451191033695
tp2710
a(S'Val86_Ile94'
p2711
F1.1391520277142048e-06
tp2712
a(S'Val86_Trp99'
p2713
F0.0
tp2714
a(S'Val86_Phe101'
p2715
F0.0
tp2716
a(S'Val86_Trp105'
p2717
F0.0
tp2718
a(S'Val86_Cys106'
p2719
F0.0
tp2720
a(S'Val86_Phe108'
p2721
F0.0
tp2722
a(S'Val86_Trp109'
p2723
F0.0
tp2724
a(S'Val86_Thr110'
p2725
F0.0
tp2726
a(S'Val86_Ser111'
p2727
F0.0
tp2728
a(S'Val86_Ile112'
p2729
F0.0
tp2730
a(S'Val86_Asp113'
p2731
F0.0016948941794898919
tp2732
a(S'Val86_Val114'
p2733
F0.0
tp2734
a(S'Val86_Leu115'
p2735
F0.0
tp2736
a(S'Val86_Cys116'
p2737
F0.0
tp2738
a(S'Val86_Val117'
p2739
F0.0
tp2740
a(S'Val86_Thr118'
p2741
F0.0
tp2742
a(S'Val86_Trp158'
p2743
F0.0
tp2744
a(S'Val86_Phe166'
p2745
F0.0
tp2746
a(S'Val86_Cys191'
p2747
F0.0
tp2748
a(S'Val86_Trp286'
p2749
F0.0
tp2750
a(S'Val86_Ile309'
p2751
F0.0
tp2752
a(S'Val86_Asn312'
p2753
F0.0
tp2754
a(S'Val86_Trp313'
p2755
F0.0020403041595015653
tp2756
a(S'Val86_Gly315'
p2757
F0.0
tp2758
a(S'Val86_Tyr316'
p2759
F0.0
tp2760
a(S'Val86_Ser319'
p2761
F0.0
tp2762
a(S'Pro88_Val87'
p2763
F0.0
tp2764
a(S'Phe89_Val87'
p2765
F0.0
tp2766
a(S'Val87_Gly90'
p2767
F0.0
tp2768
a(S'Val87_Ala91'
p2769
F0.0
tp2770
a(S'Val87_Ala92'
p2771
F0.0
tp2772
a(S'Val87_His93'
p2773
F0.0
tp2774
a(S'Val87_Ile94'
p2775
F0.0
tp2776
a(S'Val87_Leu95'
p2777
F0.0
tp2778
a(S'Val87_Trp99'
p2779
F8.18952404208773e-05
tp2780
a(S'Val87_Phe101'
p2781
F0.0
tp2782
a(S'Val87_Trp109'
p2783
F0.0
tp2784
a(S'Val87_Thr110'
p2785
F0.0
tp2786
a(S'Val87_Ile112'
p2787
F0.0
tp2788
a(S'Val87_Asp113'
p2789
F0.0
tp2790
a(S'Val87_Val114'
p2791
F0.0011853927482650124
tp2792
a(S'Val87_Cys116'
p2793
F0.0
tp2794
a(S'Val87_Val117'
p2795
F0.0
tp2796
a(S'Val87_Trp286'
p2797
F0.0
tp2798
a(S'Val87_Ile309'
p2799
F0.0
tp2800
a(S'Val87_Asn312'
p2801
F0.0
tp2802
a(S'Val87_Trp313'
p2803
F0.0
tp2804
a(S'Val87_Ile314'
p2805
F0.0
tp2806
a(S'Val87_Gly315'
p2807
F0.001223886584059193
tp2808
a(S'Val87_Tyr316'
p2809
F0.0
tp2810
a(S'Val87_Val317'
p2811
F0.0
tp2812
a(S'Val87_Asn318'
p2813
F0.0
tp2814
a(S'Val87_Ser319'
p2815
F0.0
tp2816
a(S'Val87_Gly320'
p2817
F0.001333488996556227
tp2818
a(S'Phe89_Pro88'
p2819
F0.000986097490601068
tp2820
a(S'Pro88_Gly90'
p2821
F0.0009877696270786873
tp2822
a(S'Pro88_Ala91'
p2823
F0.0
tp2824
a(S'Pro88_Ala92'
p2825
F0.0
tp2826
a(S'Pro88_His93'
p2827
F0.0
tp2828
a(S'Pro88_Ile94'
p2829
F0.0
tp2830
a(S'Pro88_Leu95'
p2831
F0.002551584138897395
tp2832
a(S'Pro88_Met96'
p2833
F0.0
tp2834
a(S'Pro88_Met98'
p2835
F0.0
tp2836
a(S'Pro88_Trp99'
p2837
F0.0
tp2838
a(S'Pro88_Thr100'
p2839
F0.0018667756245628218
tp2840
a(S'Pro88_Phe101'
p2841
F0.0
tp2842
a(S'Pro88_Trp105'
p2843
F0.0
tp2844
a(S'Pro88_Trp109'
p2845
F0.0
tp2846
a(S'Pro88_Ile112'
p2847
F0.0
tp2848
a(S'Pro88_Asp113'
p2849
F0.0006591192436473546
tp2850
a(S'Pro88_Trp313'
p2851
F0.0005962964460309049
tp2852
a(S'Pro88_Tyr316'
p2853
F0.0009760521869844196
tp2854
a(S'Phe89_Gly90'
p2855
F0.0
tp2856
a(S'Phe89_Ala91'
p2857
F0.0
tp2858
a(S'Phe89_Ala92'
p2859
F0.0
tp2860
a(S'Phe89_His93'
p2861
F0.0
tp2862
a(S'Phe89_Ile94'
p2863
F0.0
tp2864
a(S'Phe89_Leu95'
p2865
F0.0
tp2866
a(S'Phe89_Met96'
p2867
F0.0
tp2868
a(S'Phe89_Lys97'
p2869
F0.0
tp2870
a(S'Phe89_Met98'
p2871
F0.0
tp2872
a(S'Phe89_Trp99'
p2873
F0.0
tp2874
a(S'Phe89_Thr100'
p2875
F0.0
tp2876
a(S'Phe89_Phe101'
p2877
F0.0
tp2878
a(S'Phe89_Gly102'
p2879
F0.0
tp2880
a(S'Phe89_Phe104'
p2881
F0.0
tp2882
a(S'Phe89_Trp105'
p2883
F0.0
tp2884
a(S'Phe89_Cys106'
p2885
F0.0
tp2886
a(S'Phe89_Glu107'
p2887
F0.0
tp2888
a(S'Phe89_Phe108'
p2889
F0.0
tp2890
a(S'Phe89_Trp109'
p2891
F0.0
tp2892
a(S'Phe89_Thr110'
p2893
F0.0
tp2894
a(S'Phe89_Ile112'
p2895
F0.0009312518998834201
tp2896
a(S'Phe89_Asp113'
p2897
F0.0
tp2898
a(S'Phe89_Cys191'
p2899
F0.0
tp2900
a(S'Phe89_Ile309'
p2901
F0.0
tp2902
a(S'Phe89_Trp313'
p2903
F0.0017746252700066285
tp2904
a(S'Phe89_Tyr316'
p2905
F0.0
tp2906
a(S'Ala91_Gly90'
p2907
F0.0
tp2908
a(S'Ala92_Gly90'
p2909
F0.0014707929754925204
tp2910
a(S'His93_Gly90'
p2911
F0.0
tp2912
a(S'Ile94_Gly90'
p2913
F0.0
tp2914
a(S'Leu95_Gly90'
p2915
F0.0
tp2916
a(S'Met96_Gly90'
p2917
F0.0
tp2918
a(S'Lys97_Gly90'
p2919
F0.0
tp2920
a(S'Met98_Gly90'
p2921
F0.0
tp2922
a(S'Trp99_Gly90'
p2923
F0.004367394210724007
tp2924
a(S'Thr100_Gly90'
p2925
F0.0
tp2926
a(S'Phe101_Gly90'
p2927
F0.0
tp2928
a(S'Trp105_Gly90'
p2929
F0.0
tp2930
a(S'Trp109_Gly90'
p2931
F0.0
tp2932
a(S'Thr110_Gly90'
p2933
F0.0
tp2934
a(S'Ile112_Gly90'
p2935
F0.0
tp2936
a(S'Asp113_Gly90'
p2937
F0.0003734423166744718
tp2938
a(S'Cys191_Gly90'
p2939
F0.00032876127002662373
tp2940
a(S'Ile309_Gly90'
p2941
F0.0
tp2942
a(S'Asn312_Gly90'
p2943
F0.0015506307882390436
tp2944
a(S'Trp313_Gly90'
p2945
F0.0019847520760144332
tp2946
a(S'Tyr316_Gly90'
p2947
F0.0
tp2948
a(S'Ala92_Ala91'
p2949
F0.0
tp2950
a(S'His93_Ala91'
p2951
F0.0
tp2952
a(S'Ile94_Ala91'
p2953
F0.0
tp2954
a(S'Ala91_Leu95'
p2955
F0.00192603834280291
tp2956
a(S'Ala91_Met96'
p2957
F0.0
tp2958
a(S'Ala91_Lys97'
p2959
F0.00024757023743446084
tp2960
a(S'Ala91_Met98'
p2961
F0.0
tp2962
a(S'Ala91_Trp99'
p2963
F0.0001543962168101703
tp2964
a(S'Ala91_Thr100'
p2965
F0.0
tp2966
a(S'Ala91_Phe101'
p2967
F0.0
tp2968
a(S'Ala91_Trp109'
p2969
F0.0
tp2970
a(S'Ala91_Asp113'
p2971
F0.0010505932939920961
tp2972
a(S'Ala91_Ile309'
p2973
F0.0
tp2974
a(S'Ala91_Trp313'
p2975
F1.697827427392567e-05
tp2976
a(S'Ala91_Tyr316'
p2977
F0.0009858293653112107
tp2978
a(S'His93_Ala92'
p2979
F0.0
tp2980
a(S'Ile94_Ala92'
p2981
F0.0009815960669094439
tp2982
a(S'Ala92_Leu95'
p2983
F0.0
tp2984
a(S'Ala92_Met96'
p2985
F0.0
tp2986
a(S'Ala92_Lys97'
p2987
F0.0
tp2988
a(S'Ala92_Met98'
p2989
F0.0
tp2990
a(S'Ala92_Trp99'
p2991
F0.0
tp2992
a(S'Ala92_Thr100'
p2993
F0.0
tp2994
a(S'Ala92_Phe101'
p2995
F0.0
tp2996
a(S'Ala92_Trp105'
p2997
F0.0
tp2998
a(S'Ala92_Trp109'
p2999
F0.0
tp3000
a(S'Ala92_Thr189'
p3001
F0.0
tp3002
a(S'Ala92_Cys191'
p3003
F0.0
tp3004
a(S'Ala92_Ile309'
p3005
F0.0
tp3006
a(S'Ala92_Trp313'
p3007
F7.445256371192021e-05
tp3008
a(S'Ala92_Tyr316'
p3009
F0.0
tp3010
a(S'Ile94_His93'
p3011
F0.0
tp3012
a(S'His93_Leu95'
p3013
F4.6672733126150136e-05
tp3014
a(S'His93_Met96'
p3015
F0.0
tp3016
a(S'His93_Lys97'
p3017
F0.0
tp3018
a(S'His93_Met98'
p3019
F0.0
tp3020
a(S'His93_Trp99'
p3021
F0.0
tp3022
a(S'His93_Thr100'
p3023
F0.0
tp3024
a(S'His93_Phe101'
p3025
F0.0
tp3026
a(S'His93_Gly102'
p3027
F0.0
tp3028
a(S'His93_Asn103'
p3029
F0.0
tp3030
a(S'His93_Trp105'
p3031
F0.0
tp3032
a(S'His93_Cys106'
p3033
F0.0
tp3034
a(S'His93_Trp109'
p3035
F0.0
tp3036
a(S'His93_Thr110'
p3037
F0.0
tp3038
a(S'His93_Asp113'
p3039
F0.0
tp3040
a(S'His93_Cys184'
p3041
F0.001714385777659734
tp3042
a(S'His93_Glu187'
p3043
F0.0
tp3044
a(S'His93_Glu188'
p3045
F0.0
tp3046
a(S'His93_Thr189'
p3047
F0.0
tp3048
a(S'His93_Cys190'
p3049
F0.0
tp3050
a(S'His93_Cys191'
p3051
F1.4590146580161247e-06
tp3052
a(S'His93_Asp192'
p3053
F0.0
tp3054
a(S'His93_Phe193'
p3055
F0.0
tp3056
a(S'His93_Phe194'
p3057
F0.0
tp3058
a(S'His93_Lys305'
p3059
F0.0
tp3060
a(S'His93_Ile309'
p3061
F0.0
tp3062
a(S'His93_Trp313'
p3063
F0.00133652585544981
tp3064
a(S'His93_Tyr316'
p3065
F0.0013395573329603408
tp3066
a(S'Ile94_Leu95'
p3067
F0.0
tp3068
a(S'Ile94_Met96'
p3069
F0.0
tp3070
a(S'Ile94_Lys97'
p3071
F0.0010053104740809472
tp3072
a(S'Ile94_Met98'
p3073
F0.0
tp3074
a(S'Ile94_Trp99'
p3075
F0.0
tp3076
a(S'Ile94_Thr100'
p3077
F0.0
tp3078
a(S'Ile94_Phe101'
p3079
F0.0008691558976907628
tp3080
a(S'Ile94_Trp109'
p3081
F0.0019906822276756476
tp3082
a(S'Ile94_Asp113'
p3083
F0.0
tp3084
a(S'Ile94_Thr189'
p3085
F0.0
tp3086
a(S'Ile94_Cys191'
p3087
F0.0010003503240498138
tp3088
a(S'Ile94_Asp192'
p3089
F0.0
tp3090
a(S'Ile94_Lys305'
p3091
F0.0006667444982781135
tp3092
a(S'Ile94_Glu306'
p3093
F0.0
tp3094
a(S'Ile94_Tyr308'
p3095
F0.0
tp3096
a(S'Ile94_Ile309'
p3097
F0.0
tp3098
a(S'Ile94_Leu310'
p3099
F3.872659222601119e-05
tp3100
a(S'Ile94_Leu311'
p3101
F0.000479615876402406
tp3102
a(S'Ile94_Asn312'
p3103
F0.0
tp3104
a(S'Ile94_Trp313'
p3105
F0.0012921231800978312
tp3106
a(S'Ile94_Ile314'
p3107
F0.0021054743315331013
tp3108
a(S'Ile94_Tyr316'
p3109
F0.0
tp3110
a(S'Leu95_Met96'
p3111
F0.0
tp3112
a(S'Leu95_Lys97'
p3113
F0.0
tp3114
a(S'Leu95_Met98'
p3115
F0.0
tp3116
a(S'Leu95_Trp99'
p3117
F0.0004938076440372299
tp3118
a(S'Leu95_Thr100'
p3119
F0.0
tp3120
a(S'Leu95_Ile309'
p3121
F0.004145267912862626
tp3122
a(S'Leu95_Trp313'
p3123
F0.0024678265877101603
tp3124
a(S'Met96_Lys97'
p3125
F0.0
tp3126
a(S'Met96_Met98'
p3127
F0.0015769386124299984
tp3128
a(S'Met96_Trp99'
p3129
F0.0
tp3130
a(S'Met96_Thr100'
p3131
F0.0
tp3132
a(S'Met96_Phe101'
p3133
F0.000500087565674302
tp3134
a(S'Met96_Thr189'
p3135
F0.0
tp3136
a(S'Lys97_Met98'
p3137
F0.0
tp3138
a(S'Lys97_Trp99'
p3139
F0.0
tp3140
a(S'Lys97_Thr100'
p3141
F0.0
tp3142
a(S'Lys97_Thr189'
p3143
F0.0
tp3144
a(S'Lys97_Cys190'
p3145
F0.0
tp3146
a(S'Lys97_Cys191'
p3147
F0.0
tp3148
a(S'Lys97_Asp192'
p3149
F0.0
tp3150
a(S'Lys97_Lys305'
p3151
F0.000629739897515788
tp3152
a(S'Lys97_Glu306'
p3153
F0.0
tp3154
a(S'Lys97_Ile309'
p3155
F0.0
tp3156
a(S'Met98_Trp99'
p3157
F0.006304051204893374
tp3158
a(S'Met98_Thr100'
p3159
F0.0
tp3160
a(S'Met98_Phe101'
p3161
F0.0
tp3162
a(S'Met98_Gly102'
p3163
F0.0
tp3164
a(S'Met98_Cys106'
p3165
F0.0
tp3166
a(S'Met98_Trp109'
p3167
F0.0
tp3168
a(S'Met98_Cys184'
p3169
F0.0005000583737085851
tp3170
a(S'Met98_Glu187'
p3171
F0.0
tp3172
a(S'Met98_Glu188'
p3173
F0.00032650323076625904
tp3174
a(S'Met98_Thr189'
p3175
F0.0
tp3176
a(S'Met98_Cys190'
p3177
F0.0
tp3178
a(S'Met98_Cys191'
p3179
F0.0
tp3180
a(S'Met98_Asp192'
p3181
F0.0010463345452733507
tp3182
a(S'Trp99_Thr100'
p3183
F0.0
tp3184
a(S'Trp99_Phe101'
p3185
F0.0
tp3186
a(S'Trp99_Gly102'
p3187
F0.0
tp3188
a(S'Trp99_Asn103'
p3189
F0.0
tp3190
a(S'Trp99_Phe104'
p3191
F0.0
tp3192
a(S'Trp99_Trp105'
p3193
F0.0
tp3194
a(S'Trp99_Cys106'
p3195
F0.0
tp3196
a(S'Trp99_Glu107'
p3197
F0.0
tp3198
a(S'Trp99_Phe108'
p3199
F0.0
tp3200
a(S'Trp99_Trp109'
p3201
F0.0
tp3202
a(S'Trp99_Thr110'
p3203
F5.017914741664131e-06
tp3204
a(S'Trp99_Ser111'
p3205
F0.0030226886116228656
tp3206
a(S'Trp99_Ile112'
p3207
F0.0012998056559298322
tp3208
a(S'Trp99_Asp113'
p3209
F0.0009759585893468854
tp3210
a(S'Trp99_Cys184'
p3211
F0.0
tp3212
a(S'Trp99_Tyr185'
p3213
F0.0007501167542328369
tp3214
a(S'Trp99_Ala186'
p3215
F0.0
tp3216
a(S'Trp99_Glu187'
p3217
F0.0009768582184074691
tp3218
a(S'Trp99_Glu188'
p3219
F0.0
tp3220
a(S'Trp99_Thr189'
p3221
F0.0
tp3222
a(S'Trp99_Cys190'
p3223
F0.0
tp3224
a(S'Trp99_Cys191'
p3225
F0.0010146561546571142
tp3226
a(S'Trp99_Asp192'
p3227
F0.0006206901497808845
tp3228
a(S'Trp99_Phe193'
p3229
F0.0
tp3230
a(S'Trp99_Tyr316'
p3231
F0.0007174344684161136
tp3232
a(S'Thr100_Phe101'
p3233
F0.0
tp3234
a(S'Thr100_Gly102'
p3235
F0.0
tp3236
a(S'Thr100_Asn103'
p3237
F0.0
tp3238
a(S'Thr100_Phe104'
p3239
F0.0014321525430025337
tp3240
a(S'Thr100_Trp105'
p3241
F0.0
tp3242
a(S'Thr100_Cys106'
p3243
F0.0
tp3244
a(S'Thr100_Trp109'
p3245
F0.0
tp3246
a(S'Thr100_Glu187'
p3247
F0.0
tp3248
a(S'Thr100_Glu188'
p3249
F0.0
tp3250
a(S'Thr100_Thr189'
p3251
F0.0
tp3252
a(S'Thr100_Cys190'
p3253
F0.0
tp3254
a(S'Thr100_Cys191'
p3255
F0.0
tp3256
a(S'Thr100_Asp192'
p3257
F3.396317647645567e-06
tp3258
a(S'Phe101_Gly102'
p3259
F0.0
tp3260
a(S'Phe101_Asn103'
p3261
F0.0
tp3262
a(S'Phe101_Phe104'
p3263
F0.0
tp3264
a(S'Phe101_Trp105'
p3265
F0.0
tp3266
a(S'Phe101_Cys106'
p3267
F0.0
tp3268
a(S'Phe101_Glu107'
p3269
F0.00021437330041208138
tp3270
a(S'Phe101_Phe108'
p3271
F0.0
tp3272
a(S'Phe101_Trp109'
p3273
F0.0
tp3274
a(S'Phe101_Thr110'
p3275
F0.0
tp3276
a(S'Phe101_Glu187'
p3277
F6.048161606607452e-06
tp3278
a(S'Phe101_Glu188'
p3279
F0.0
tp3280
a(S'Phe101_Thr189'
p3281
F0.0
tp3282
a(S'Phe101_Cys190'
p3283
F0.0
tp3284
a(S'Phe101_Cys191'
p3285
F0.000663652982303302
tp3286
a(S'Gly102_Asn103'
p3287
F0.0
tp3288
a(S'Gly102_Phe104'
p3289
F0.0
tp3290
a(S'Gly102_Trp105'
p3291
F0.0
tp3292
a(S'Gly102_Cys106'
p3293
F0.0
tp3294
a(S'Gly102_Glu107'
p3295
F0.0
tp3296
a(S'Gly102_Phe108'
p3297
F0.0003251138553161892
tp3298
a(S'Gly102_Trp109'
p3299
F0.0
tp3300
a(S'Gly102_Thr110'
p3301
F0.0
tp3302
a(S'Gly102_Gln170'
p3303
F0.0
tp3304
a(S'Gly102_Tyr174'
p3305
F0.0
tp3306
a(S'Gly102_Arg175'
p3307
F0.0
tp3308
a(S'Gly102_Cys184'
p3309
F0.0
tp3310
a(S'Gly102_Tyr185'
p3311
F0.0
tp3312
a(S'Gly102_Ala186'
p3313
F0.0
tp3314
a(S'Gly102_Glu187'
p3315
F0.0026857647700839534
tp3316
a(S'Gly102_Glu188'
p3317
F0.0
tp3318
a(S'Gly102_Thr189'
p3319
F0.0
tp3320
a(S'Gly102_Cys190'
p3321
F0.0
tp3322
a(S'Gly102_Cys191'
p3323
F0.0
tp3324
a(S'Gly102_Asp192'
p3325
F0.0
tp3326
a(S'Asn103_Phe104'
p3327
F0.0
tp3328
a(S'Asn103_Trp105'
p3329
F0.0
tp3330
a(S'Asn103_Cys106'
p3331
F0.0
tp3332
a(S'Asn103_Glu107'
p3333
F0.0
tp3334
a(S'Asn103_Phe108'
p3335
F0.0
tp3336
a(S'Asn103_Trp109'
p3337
F0.0
tp3338
a(S'Asn103_Thr110'
p3339
F0.0
tp3340
a(S'Asn103_Ser111'
p3341
F0.00024776426694145774
tp3342
a(S'Asn103_Ile169'
p3343
F0.0
tp3344
a(S'Asn103_Gln170'
p3345
F0.0
tp3346
a(S'Asn103_His172'
p3347
F0.0
tp3348
a(S'Asn103_Tyr174'
p3349
F0.0
tp3350
a(S'Asn103_Arg175'
p3351
F0.0
tp3352
a(S'Asn103_Ala181'
p3353
F0.0
tp3354
a(S'Asn103_Ile182'
p3355
F0.0
tp3356
a(S'Asn103_Asn183'
p3357
F0.0010668534734385108
tp3358
a(S'Asn103_Cys184'
p3359
F0.00047511092299607827
tp3360
a(S'Asn103_Tyr185'
p3361
F0.0
tp3362
a(S'Asn103_Ala186'
p3363
F0.0
tp3364
a(S'Asn103_Glu187'
p3365
F0.0
tp3366
a(S'Asn103_Glu188'
p3367
F0.0030638272719421262
tp3368
a(S'Asn103_Thr189'
p3369
F0.0
tp3370
a(S'Asn103_Cys190'
p3371
F0.0
tp3372
a(S'Asn103_Cys191'
p3373
F0.0
tp3374
a(S'Asn103_Asp192'
p3375
F0.0
tp3376
a(S'Asn103_Phe193'
p3377
F0.0
tp3378
a(S'Asn103_Phe194'
p3379
F0.0
tp3380
a(S'Phe104_Trp105'
p3381
F0.0
tp3382
a(S'Phe104_Cys106'
p3383
F0.0
tp3384
a(S'Phe104_Glu107'
p3385
F0.0
tp3386
a(S'Phe104_Phe108'
p3387
F0.0
tp3388
a(S'Phe104_Trp109'
p3389
F0.0
tp3390
a(S'Phe104_Thr110'
p3391
F0.0
tp3392
a(S'Phe104_Ser111'
p3393
F0.0009901155799430003
tp3394
a(S'Phe104_Ile112'
p3395
F0.0
tp3396
a(S'Phe104_Phe166'
p3397
F0.0
tp3398
a(S'Phe104_Ile169'
p3399
F0.004859808653043647
tp3400
a(S'Phe104_Gln170'
p3401
F0.0
tp3402
a(S'Phe104_Met171'
p3403
F0.0
tp3404
a(S'Phe104_His172'
p3405
F0.0
tp3406
a(S'Phe104_Tyr174'
p3407
F0.0
tp3408
a(S'Phe104_Arg175'
p3409
F0.0
tp3410
a(S'Phe104_Cys184'
p3411
F0.0
tp3412
a(S'Phe104_Tyr185'
p3413
F0.0
tp3414
a(S'Phe104_Ala186'
p3415
F0.0
tp3416
a(S'Phe104_Glu187'
p3417
F0.004278841045296513
tp3418
a(S'Phe104_Glu188'
p3419
F0.0
tp3420
a(S'Phe104_Thr189'
p3421
F0.0
tp3422
a(S'Phe104_Cys190'
p3423
F0.0
tp3424
a(S'Phe104_Cys191'
p3425
F0.0
tp3426
a(S'Trp105_Cys106'
p3427
F0.0
tp3428
a(S'Trp105_Glu107'
p3429
F0.0
tp3430
a(S'Trp105_Phe108'
p3431
F0.0
tp3432
a(S'Trp105_Trp109'
p3433
F0.0
tp3434
a(S'Trp105_Thr110'
p3435
F0.0
tp3436
a(S'Trp105_Ser111'
p3437
F0.0
tp3438
a(S'Trp105_Ile112'
p3439
F0.0
tp3440
a(S'Trp105_Asp113'
p3441
F0.0
tp3442
a(S'Trp105_Phe166'
p3443
F0.0
tp3444
a(S'Trp105_Ile169'
p3445
F0.0008889926643708177
tp3446
a(S'Trp105_Gln170'
p3447
F0.0
tp3448
a(S'Trp105_His172'
p3449
F0.0
tp3450
a(S'Trp105_Tyr174'
p3451
F0.0009882233600020838
tp3452
a(S'Trp105_Arg175'
p3453
F0.0003333917104495347
tp3454
a(S'Trp105_Tyr185'
p3455
F0.0
tp3456
a(S'Trp105_Glu187'
p3457
F9.625416051352083e-05
tp3458
a(S'Trp105_Glu188'
p3459
F0.0015402203125453036
tp3460
a(S'Trp105_Cys190'
p3461
F0.0004903105500475531
tp3462
a(S'Trp105_Cys191'
p3463
F0.0
tp3464
a(S'Cys106_Glu107'
p3465
F0.0
tp3466
a(S'Cys106_Phe108'
p3467
F7.419061013058014e-05
tp3468
a(S'Cys106_Trp109'
p3469
F0.0012755856747634375
tp3470
a(S'Cys106_Thr110'
p3471
F0.0
tp3472
a(S'Cys106_Ser111'
p3473
F0.0
tp3474
a(S'Cys106_Ile112'
p3475
F0.0
tp3476
a(S'Cys106_Asp113'
p3477
F0.0
tp3478
a(S'Cys106_Val114'
p3479
F0.0
tp3480
a(S'Cys106_Ser165'
p3481
F0.0
tp3482
a(S'Cys106_Phe166'
p3483
F0.0
tp3484
a(S'Cys106_Ile169'
p3485
F0.0
tp3486
a(S'Cys106_Gln170'
p3487
F0.0
tp3488
a(S'Cys106_His172'
p3489
F0.0
tp3490
a(S'Cys106_Tyr174'
p3491
F0.0
tp3492
a(S'Cys106_Arg175'
p3493
F3.295432405189665e-06
tp3494
a(S'Cys106_Ala181'
p3495
F0.0
tp3496
a(S'Cys106_Cys184'
p3497
F0.0
tp3498
a(S'Cys106_Tyr185'
p3499
F0.0
tp3500
a(S'Cys106_Ala186'
p3501
F0.0
tp3502
a(S'Cys106_Glu187'
p3503
F0.0
tp3504
a(S'Cys106_Glu188'
p3505
F0.0
tp3506
a(S'Cys106_Thr189'
p3507
F0.0
tp3508
a(S'Cys106_Cys190'
p3509
F0.0
tp3510
a(S'Cys106_Cys191'
p3511
F0.0
tp3512
a(S'Cys106_Asp192'
p3513
F0.004685015618639785
tp3514
a(S'Cys106_Phe193'
p3515
F0.0
tp3516
a(S'Cys106_Phe194'
p3517
F2.0937119824374452e-05
tp3518
a(S'Cys106_Lys305'
p3519
F0.0
tp3520
a(S'Glu107_Phe108'
p3521
F0.0
tp3522
a(S'Glu107_Trp109'
p3523
F0.0
tp3524
a(S'Glu107_Thr110'
p3525
F0.0
tp3526
a(S'Glu107_Ser111'
p3527
F0.0
tp3528
a(S'Glu107_Ile112'
p3529
F0.0
tp3530
a(S'Glu107_Asp113'
p3531
F0.0
tp3532
a(S'Glu107_Val114'
p3533
F0.00025005838052425175
tp3534
a(S'Glu107_Leu115'
p3535
F0.0
tp3536
a(S'Glu107_Thr164'
p3537
F6.063706160768066e-05
tp3538
a(S'Glu107_Ser165'
p3539
F0.0009792809818459803
tp3540
a(S'Glu107_Phe166'
p3541
F0.00048654328252727044
tp3542
a(S'Glu107_Leu167'
p3543
F0.000496714606211438
tp3544
a(S'Glu107_Pro168'
p3545
F0.00852723866419107
tp3546
a(S'Glu107_Ile169'
p3547
F0.0
tp3548
a(S'Glu107_Gln170'
p3549
F0.0
tp3550
a(S'Glu107_Met171'
p3551
F0.0
tp3552
a(S'Glu107_His172'
p3553
F0.0
tp3554
a(S'Glu107_Trp173'
p3555
F0.0
tp3556
a(S'Glu107_Tyr174'
p3557
F0.0
tp3558
a(S'Glu107_Arg175'
p3559
F0.0
tp3560
a(S'Glu107_Cys184'
p3561
F0.0
tp3562
a(S'Glu107_Tyr185'
p3563
F0.0
tp3564
a(S'Glu107_Ala186'
p3565
F0.0
tp3566
a(S'Glu107_Glu187'
p3567
F0.0
tp3568
a(S'Glu107_Glu188'
p3569
F0.0
tp3570
a(S'Glu107_Cys190'
p3571
F0.0
tp3572
a(S'Glu107_Cys191'
p3573
F0.0
tp3574
a(S'Glu107_Asp192'
p3575
F7.109515956450252e-05
tp3576
a(S'Glu107_Phe193'
p3577
F0.0009656299630234739
tp3578
a(S'Glu107_Tyr199'
p3579
F0.00024331699391860992
tp3580
a(S'Phe108_Trp109'
p3581
F0.0
tp3582
a(S'Phe108_Thr110'
p3583
F0.0
tp3584
a(S'Phe108_Ser111'
p3585
F0.0
tp3586
a(S'Phe108_Ile112'
p3587
F0.0
tp3588
a(S'Phe108_Asp113'
p3589
F0.0
tp3590
a(S'Phe108_Val114'
p3591
F0.0
tp3592
a(S'Phe108_Leu115'
p3593
F0.0
tp3594
a(S'Phe108_Cys116'
p3595
F0.0020842241764504827
tp3596
a(S'Phe108_Gly162'
p3597
F0.0
tp3598
a(S'Phe108_Ser165'
p3599
F0.0
tp3600
a(S'Phe108_Phe166'
p3601
F0.0019113342283972586
tp3602
a(S'Phe108_Leu167'
p3603
F0.0
tp3604
a(S'Phe108_Ile169'
p3605
F0.0
tp3606
a(S'Phe108_Gln170'
p3607
F0.0
tp3608
a(S'Phe108_Met171'
p3609
F0.0
tp3610
a(S'Phe108_His172'
p3611
F0.0
tp3612
a(S'Phe108_Tyr174'
p3613
F0.0
tp3614
a(S'Phe108_Arg175'
p3615
F0.0
tp3616
a(S'Phe108_Cys191'
p3617
F0.00033339171044953475
tp3618
a(S'Trp109_Thr110'
p3619
F0.0
tp3620
a(S'Trp109_Ser111'
p3621
F0.0
tp3622
a(S'Trp109_Ile112'
p3623
F0.0049253782588037165
tp3624
a(S'Trp109_Asp113'
p3625
F0.0
tp3626
a(S'Trp109_Val114'
p3627
F0.0
tp3628
a(S'Trp109_Leu115'
p3629
F0.001155178415814
tp3630
a(S'Trp109_Cys116'
p3631
F0.0
tp3632
a(S'Trp109_Val117'
p3633
F0.0
tp3634
a(S'Trp109_Ser165'
p3635
F0.00049765362876854
tp3636
a(S'Trp109_Phe166'
p3637
F0.0
tp3638
a(S'Trp109_Ile169'
p3639
F0.00033339171044953475
tp3640
a(S'Trp109_Gln170'
p3641
F0.0
tp3642
a(S'Trp109_Tyr174'
p3643
F0.0
tp3644
a(S'Trp109_Cys190'
p3645
F0.0
tp3646
a(S'Trp109_Cys191'
p3647
F0.0
tp3648
a(S'Trp109_Asp192'
p3649
F0.0
tp3650
a(S'Trp109_Phe193'
p3651
F0.0
tp3652
a(S'Trp109_Phe194'
p3653
F0.0
tp3654
a(S'Trp109_Lys305'
p3655
F0.0
tp3656
a(S'Trp109_Tyr308'
p3657
F0.0
tp3658
a(S'Trp109_Ile309'
p3659
F0.0
tp3660
a(S'Trp109_Asn312'
p3661
F4.41366171655853e-05
tp3662
a(S'Trp109_Trp313'
p3663
F0.0
tp3664
a(S'Trp109_Tyr316'
p3665
F0.0
tp3666
a(S'Thr110_Ser111'
p3667
F0.0
tp3668
a(S'Thr110_Ile112'
p3669
F0.0
tp3670
a(S'Thr110_Asp113'
p3671
F0.0
tp3672
a(S'Thr110_Val114'
p3673
F0.0
tp3674
a(S'Thr110_Leu115'
p3675
F0.0
tp3676
a(S'Thr110_Cys116'
p3677
F0.0
tp3678
a(S'Thr110_Val117'
p3679
F0.0
tp3680
a(S'Thr110_Thr118'
p3681
F0.0
tp3682
a(S'Thr110_Ser161'
p3683
F0.0
tp3684
a(S'Thr110_Gly162'
p3685
F0.001286014528410438
tp3686
a(S'Thr110_Thr164'
p3687
F1.206264321158409e-05
tp3688
a(S'Thr110_Ser165'
p3689
F0.0
tp3690
a(S'Thr110_Phe166'
p3691
F0.0
tp3692
a(S'Thr110_Leu167'
p3693
F0.0
tp3694
a(S'Thr110_Pro168'
p3695
F0.0
tp3696
a(S'Thr110_Ile169'
p3697
F0.0
tp3698
a(S'Thr110_Gln170'
p3699
F0.0
tp3700
a(S'Thr110_Tyr174'
p3701
F0.0
tp3702
a(S'Thr110_Arg175'
p3703
F7.307876157288348e-06
tp3704
a(S'Thr110_Cys184'
p3705
F0.0
tp3706
a(S'Thr110_Tyr185'
p3707
F0.0
tp3708
a(S'Thr110_Cys190'
p3709
F0.0
tp3710
a(S'Thr110_Cys191'
p3711
F0.0
tp3712
a(S'Thr110_Asp192'
p3713
F0.001126422039785653
tp3714
a(S'Thr110_Phe193'
p3715
F0.0
tp3716
a(S'Thr110_Phe194'
p3717
F0.0
tp3718
a(S'Thr110_Thr195'
p3719
F0.0
tp3720
a(S'Thr110_Tyr199'
p3721
F0.0
tp3722
a(S'Thr110_Ser203'
p3723
F0.0
tp3724
a(S'Thr110_Ser207'
p3725
F0.0
tp3726
a(S'Thr110_Lys305'
p3727
F0.0
tp3728
a(S'Thr110_Tyr308'
p3729
F0.0
tp3730
a(S'Thr110_Asn312'
p3731
F0.0
tp3732
a(S'Thr110_Tyr316'
p3733
F0.0
tp3734
a(S'Ser111_Ile112'
p3735
F0.0
tp3736
a(S'Ser111_Asp113'
p3737
F0.0
tp3738
a(S'Ser111_Val114'
p3739
F0.0
tp3740
a(S'Ser111_Leu115'
p3741
F0.0
tp3742
a(S'Ser111_Cys116'
p3743
F0.0
tp3744
a(S'Ser111_Val117'
p3745
F0.0
tp3746
a(S'Ser111_Thr118'
p3747
F0.0
tp3748
a(S'Ser111_Ala119'
p3749
F0.0
tp3750
a(S'Ser111_Trp158'
p3751
F0.0
tp3752
a(S'Ser111_Val160'
p3753
F0.0
tp3754
a(S'Ser111_Ser161'
p3755
F0.00021437330041208138
tp3756
a(S'Ser111_Gly162'
p3757
F0.001714750902636754
tp3758
a(S'Ser111_Leu163'
p3759
F0.0005229270029201915
tp3760
a(S'Ser111_Thr164'
p3761
F0.001333488996556227
tp3762
a(S'Ser111_Ser165'
p3763
F0.0009445547058939942
tp3764
a(S'Ser111_Phe166'
p3765
F0.0
tp3766
a(S'Ser111_Leu167'
p3767
F0.0
tp3768
a(S'Ser111_Pro168'
p3769
F0.0
tp3770
a(S'Ser111_Ile169'
p3771
F0.0
tp3772
a(S'Ser111_Gln170'
p3773
F0.0
tp3774
a(S'Ser111_Met171'
p3775
F0.0
tp3776
a(S'Ser111_His172'
p3777
F0.0
tp3778
a(S'Ser111_Trp173'
p3779
F0.0
tp3780
a(S'Ser111_Tyr174'
p3781
F0.0009895901659413412
tp3782
a(S'Ser111_Arg175'
p3783
F0.0
tp3784
a(S'Ser111_Cys191'
p3785
F0.0
tp3786
a(S'Ser111_Phe193'
p3787
F0.0
tp3788
a(S'Ser111_Tyr199'
p3789
F0.0
tp3790
a(S'Ser111_Ser207'
p3791
F0.0
tp3792
a(S'Ser111_Tyr316'
p3793
F0.0
tp3794
a(S'Ile112_Asp113'
p3795
F0.0
tp3796
a(S'Ile112_Val114'
p3797
F0.0
tp3798
a(S'Ile112_Leu115'
p3799
F0.0013721068763610992
tp3800
a(S'Ile112_Cys116'
p3801
F0.0
tp3802
a(S'Ile112_Val117'
p3803
F0.0
tp3804
a(S'Ile112_Thr118'
p3805
F0.0
tp3806
a(S'Ile112_Ala119'
p3807
F0.0
tp3808
a(S'Ile112_Ser120'
p3809
F0.0
tp3810
a(S'Ile112_Trp158'
p3811
F0.0
tp3812
a(S'Ile112_Ser161'
p3813
F0.0
tp3814
a(S'Ile112_Gly162'
p3815
F0.0
tp3816
a(S'Ile112_Thr164'
p3817
F0.0004869561635121798
tp3818
a(S'Ile112_Ser165'
p3819
F0.0
tp3820
a(S'Ile112_Phe166'
p3821
F0.0
tp3822
a(S'Ile112_Leu167'
p3823
F0.0
tp3824
a(S'Ile112_Pro168'
p3825
F0.0
tp3826
a(S'Ile112_Ile169'
p3827
F0.0
tp3828
a(S'Ile112_Gln170'
p3829
F0.0
tp3830
a(S'Ile112_Phe193'
p3831
F0.0
tp3832
a(S'Ile112_Tyr199'
p3833
F0.0
tp3834
a(S'Ile112_Ser207'
p3835
F0.0
tp3836
a(S'Ile112_Tyr316'
p3837
F0.0005928001920295192
tp3838
a(S'Ile112_Ser319'
p3839
F0.0
tp3840
a(S'Asp113_Val114'
p3841
F0.0
tp3842
a(S'Asp113_Leu115'
p3843
F6.399047220717232e-05
tp3844
a(S'Asp113_Cys116'
p3845
F0.003618817314650897
tp3846
a(S'Asp113_Val117'
p3847
F0.0
tp3848
a(S'Asp113_Thr118'
p3849
F0.001586449016955297
tp3850
a(S'Asp113_Ala119'
p3851
F0.002471600206093343
tp3852
a(S'Asp113_Ser120'
p3853
F0.0020796065980181037
tp3854
a(S'Asp113_Ile121'
p3855
F0.0006445573068691001
tp3856
a(S'Asp113_Trp158'
p3857
F0.0
tp3858
a(S'Asp113_Ser161'
p3859
F0.0
tp3860
a(S'Asp113_Gly162'
p3861
F0.0
tp3862
a(S'Asp113_Thr164'
p3863
F0.0
tp3864
a(S'Asp113_Ser165'
p3865
F0.0
tp3866
a(S'Asp113_Phe166'
p3867
F0.0
tp3868
a(S'Asp113_Ile169'
p3869
F9.214779416555809e-06
tp3870
a(S'Asp113_Gln170'
p3871
F0.0
tp3872
a(S'Asp113_Cys191'
p3873
F0.0
tp3874
a(S'Asp113_Asp192'
p3875
F0.0
tp3876
a(S'Asp113_Phe193'
p3877
F0.0
tp3878
a(S'Asp113_Tyr199'
p3879
F0.0
tp3880
a(S'Asp113_Ser203'
p3881
F0.0
tp3882
a(S'Asp113_Ser207'
p3883
F0.0
tp3884
a(S'Asp113_Trp286'
p3885
F0.0
tp3886
a(S'Asp113_Phe289'
p3887
F0.0
tp3888
a(S'Asp113_Phe290'
p3889
F0.0019093137905236892
tp3890
a(S'Asp113_Asn293'
p3891
F0.0
tp3892
a(S'Asp113_Tyr308'
p3893
F0.0006334442498541157
tp3894
a(S'Asp113_Ile309'
p3895
F0.00041676396754041964
tp3896
a(S'Asp113_Asn312'
p3897
F0.0
tp3898
a(S'Asp113_Trp313'
p3899
F0.0
tp3900
a(S'Asp113_Gly315'
p3901
F0.0
tp3902
a(S'Asp113_Tyr316'
p3903
F0.0
tp3904
a(S'Asp113_Ser319'
p3905
F0.0
tp3906
a(S'Val114_Leu115'
p3907
F0.0
tp3908
a(S'Val114_Cys116'
p3909
F0.0
tp3910
a(S'Val114_Val117'
p3911
F0.0017566552340504667
tp3912
a(S'Val114_Thr118'
p3913
F0.0
tp3914
a(S'Val114_Ala119'
p3915
F0.0
tp3916
a(S'Val114_Ser120'
p3917
F0.0
tp3918
a(S'Val114_Ile121'
p3919
F0.0006667444982781135
tp3920
a(S'Val114_Glu122'
p3921
F0.0
tp3922
a(S'Val114_Val157'
p3923
F0.0
tp3924
a(S'Val114_Trp158'
p3925
F0.0
tp3926
a(S'Val114_Val160'
p3927
F0.0006320444729052983
tp3928
a(S'Val114_Ser161'
p3929
F0.0
tp3930
a(S'Val114_Gly162'
p3931
F0.0
tp3932
a(S'Val114_Leu163'
p3933
F0.001979582742942289
tp3934
a(S'Val114_Thr164'
p3935
F0.0
tp3936
a(S'Val114_Ser165'
p3937
F0.0
tp3938
a(S'Val114_Phe166'
p3939
F0.0
tp3940
a(S'Val114_Leu167'
p3941
F0.0
tp3942
a(S'Val114_Pro168'
p3943
F0.0
tp3944
a(S'Val114_Ile169'
p3945
F0.0
tp3946
a(S'Val114_Gln170'
p3947
F0.0
tp3948
a(S'Val114_Tyr174'
p3949
F0.0
tp3950
a(S'Val114_Phe193'
p3951
F0.0
tp3952
a(S'Val114_Thr195'
p3953
F0.0
tp3954
a(S'Val114_Tyr199'
p3955
F0.0
tp3956
a(S'Val114_Ala200'
p3957
F0.0
tp3958
a(S'Val114_Ala202'
p3959
F0.0
tp3960
a(S'Val114_Ser203'
p3961
F0.0007500875605628777
tp3962
a(S'Val114_Ser204'
p3963
F0.0
tp3964
a(S'Val114_Ile205'
p3965
F0.0
tp3966
a(S'Val114_Val206'
p3967
F0.0
tp3968
a(S'Val114_Ser207'
p3969
F0.0
tp3970
a(S'Val114_Phe208'
p3971
F0.0
tp3972
a(S'Val114_Trp286'
p3973
F0.0006667444982781135
tp3974
a(S'Val114_Phe289'
p3975
F0.0
tp3976
a(S'Val114_Phe290'
p3977
F0.0
tp3978
a(S'Val114_Asn293'
p3979
F0.0
tp3980
a(S'Val114_Tyr308'
p3981
F0.0
tp3982
a(S'Val114_Asn312'
p3983
F0.0
tp3984
a(S'Val114_Tyr316'
p3985
F0.0
tp3986
a(S'Leu115_Cys116'
p3987
F0.0009074004413512119
tp3988
a(S'Leu115_Val117'
p3989
F0.0002451481284863156
tp3990
a(S'Leu115_Thr118'
p3991
F0.0
tp3992
a(S'Leu115_Ala119'
p3993
F0.0
tp3994
a(S'Leu115_Ser120'
p3995
F0.0
tp3996
a(S'Leu115_Ile121'
p3997
F0.0
tp3998
a(S'Leu115_Glu122'
p3999
F0.0
tp4000
a(S'Leu115_Thr123'
p4001
F0.00025005838052425175
tp4002
a(S'Leu115_Ile154'
p4003
F0.0
tp4004
a(S'Leu115_Leu155'
p4005
F0.0
tp4006
a(S'Leu115_Met156'
p4007
F0.00023761094890510897
tp4008
a(S'Leu115_Val157'
p4009
F0.0
tp4010
a(S'Leu115_Trp158'
p4011
F0.0
tp4012
a(S'Leu115_Ile159'
p4013
F0.0
tp4014
a(S'Leu115_Val160'
p4015
F0.0004616462409678492
tp4016
a(S'Leu115_Ser161'
p4017
F1.5516375203732397e-05
tp4018
a(S'Leu115_Gly162'
p4019
F0.0
tp4020
a(S'Leu115_Leu163'
p4021
F0.0
tp4022
a(S'Leu115_Thr164'
p4023
F0.0
tp4024
a(S'Leu115_Ser165'
p4025
F0.0
tp4026
a(S'Leu115_Phe166'
p4027
F0.0
tp4028
a(S'Leu115_Leu167'
p4029
F0.0
tp4030
a(S'Leu115_Pro168'
p4031
F0.0006667834208990694
tp4032
a(S'Leu115_Ile169'
p4033
F0.001981068009740142
tp4034
a(S'Leu115_Gln170'
p4035
F0.0
tp4036
a(S'Leu115_Phe193'
p4037
F0.000472332496545809
tp4038
a(S'Leu115_Tyr199'
p4039
F0.0
tp4040
a(S'Leu115_Ser203'
p4041
F0.0
tp4042
a(S'Leu115_Val206'
p4043
F0.0
tp4044
a(S'Leu115_Ser207'
p4045
F0.0
tp4046
a(S'Leu115_Trp286'
p4047
F0.0
tp4048
a(S'Leu115_Phe290'
p4049
F0.0
tp4050
a(S'Leu115_Tyr316'
p4051
F0.0
tp4052
a(S'Leu115_Ser319'
p4053
F0.0
tp4054
a(S'Cys116_Val117'
p4055
F0.0
tp4056
a(S'Cys116_Thr118'
p4057
F0.002129154427483079
tp4058
a(S'Cys116_Ala119'
p4059
F0.0
tp4060
a(S'Cys116_Ser120'
p4061
F0.0
tp4062
a(S'Cys116_Ile121'
p4063
F0.0
tp4064
a(S'Cys116_Glu122'
p4065
F0.0
tp4066
a(S'Cys116_Thr123'
p4067
F0.0
tp4068
a(S'Cys116_Leu124'
p4069
F0.0
tp4070
a(S'Cys116_Val157'
p4071
F0.0
tp4072
a(S'Cys116_Trp158'
p4073
F0.0
tp4074
a(S'Cys116_Val160'
p4075
F0.0
tp4076
a(S'Cys116_Ser161'
p4077
F0.0
tp4078
a(S'Cys116_Gly162'
p4079
F0.0
tp4080
a(S'Cys116_Leu163'
p4081
F0.0
tp4082
a(S'Cys116_Thr164'
p4083
F0.0
tp4084
a(S'Cys116_Ser165'
p4085
F0.0
tp4086
a(S'Cys116_Phe166'
p4087
F0.0
tp4088
a(S'Cys116_Ile169'
p4089
F0.0
tp4090
a(S'Cys116_Ser207'
p4091
F0.0
tp4092
a(S'Cys116_Trp286'
p4093
F0.0
tp4094
a(S'Cys116_Phe290'
p4095
F0.0006667444982781135
tp4096
a(S'Cys116_Asn312'
p4097
F0.0
tp4098
a(S'Cys116_Gly315'
p4099
F0.0
tp4100
a(S'Cys116_Tyr316'
p4101
F0.0
tp4102
a(S'Cys116_Asn318'
p4103
F0.0
tp4104
a(S'Cys116_Ser319'
p4105
F0.001333411160402015
tp4106
a(S'Cys116_Asn322'
p4107
F0.0
tp4108
a(S'Val117_Thr118'
p4109
F0.00040011676786550545
tp4110
a(S'Val117_Ala119'
p4111
F0.0
tp4112
a(S'Val117_Ser120'
p4113
F0.0
tp4114
a(S'Val117_Ile121'
p4115
F0.0
tp4116
a(S'Val117_Glu122'
p4117
F0.0
tp4118
a(S'Val117_Thr123'
p4119
F0.0
tp4120
a(S'Val117_Leu124'
p4121
F0.0
tp4122
a(S'Val117_Cys125'
p4123
F0.0
tp4124
a(S'Val117_Val157'
p4125
F0.0008001401050788833
tp4126
a(S'Val117_Trp158'
p4127
F0.0
tp4128
a(S'Val117_Val160'
p4129
F0.0
tp4130
a(S'Val117_Ser161'
p4131
F0.0
tp4132
a(S'Val117_Gly162'
p4133
F0.0
tp4134
a(S'Val117_Thr164'
p4135
F0.0
tp4136
a(S'Val117_Ser165'
p4137
F0.0
tp4138
a(S'Val117_Phe166'
p4139
F0.0
tp4140
a(S'Val117_Ile169'
p4141
F0.0
tp4142
a(S'Val117_Tyr199'
p4143
F0.0
tp4144
a(S'Val117_Ser203'
p4145
F0.0
tp4146
a(S'Val117_Ser204'
p4147
F0.0
tp4148
a(S'Val117_Val206'
p4149
F0.0
tp4150
a(S'Val117_Ser207'
p4151
F0.0
tp4152
a(S'Val117_Phe208'
p4153
F0.0
tp4154
a(S'Val117_Tyr209'
p4155
F0.0
tp4156
a(S'Val117_Pro211'
p4157
F0.0
tp4158
a(S'Val117_Phe282'
p4159
F0.0
tp4160
a(S'Val117_Cys285'
p4161
F0.0009894772075510312
tp4162
a(S'Val117_Trp286'
p4163
F0.0
tp4164
a(S'Val117_Leu287'
p4165
F0.0
tp4166
a(S'Val117_Phe289'
p4167
F0.0
tp4168
a(S'Val117_Phe290'
p4169
F0.0
tp4170
a(S'Val117_Asn293'
p4171
F0.0
tp4172
a(S'Val117_Tyr308'
p4173
F0.0
tp4174
a(S'Val117_Leu311'
p4175
F0.0001667542630226654
tp4176
a(S'Val117_Asn312'
p4177
F0.0
tp4178
a(S'Val117_Trp313'
p4179
F0.0
tp4180
a(S'Val117_Ile314'
p4181
F0.0
tp4182
a(S'Val117_Gly315'
p4183
F0.001500087555452267
tp4184
a(S'Val117_Tyr316'
p4185
F0.0
tp4186
a(S'Val117_Val317'
p4187
F0.0008334306228476418
tp4188
a(S'Val117_Asn318'
p4189
F0.0
tp4190
a(S'Val117_Ser319'
p4191
F0.0
tp4192
a(S'Val117_Asn322'
p4193
F0.0
tp4194
a(S'Thr118_Ala119'
p4195
F0.0006569415991883769
tp4196
a(S'Thr118_Ser120'
p4197
F0.0
tp4198
a(S'Thr118_Ile121'
p4199
F0.0
tp4200
a(S'Thr118_Glu122'
p4201
F0.0
tp4202
a(S'Thr118_Thr123'
p4203
F1.5426393318889723e-05
tp4204
a(S'Thr118_Leu124'
p4205
F2.0048754354709488e-05
tp4206
a(S'Thr118_Cys125'
p4207
F0.0
tp4208
a(S'Thr118_Val126'
p4209
F0.0
tp4210
a(S'Thr118_Ile154'
p4211
F0.0
tp4212
a(S'Thr118_Met156'
p4213
F0.0
tp4214
a(S'Thr118_Val157'
p4215
F0.0
tp4216
a(S'Thr118_Trp158'
p4217
F0.0
tp4218
a(S'Thr118_Ile159'
p4219
F0.0006565252144236995
tp4220
a(S'Thr118_Val160'
p4221
F0.0
tp4222
a(S'Thr118_Ser161'
p4223
F0.0
tp4224
a(S'Thr118_Gly162'
p4225
F0.0
tp4226
a(S'Thr118_Leu163'
p4227
F0.0
tp4228
a(S'Thr118_Thr164'
p4229
F0.0
tp4230
a(S'Thr118_Ser165'
p4231
F0.0
tp4232
a(S'Thr118_Phe166'
p4233
F0.0
tp4234
a(S'Thr118_Pro168'
p4235
F0.0
tp4236
a(S'Thr118_Ile169'
p4237
F0.0019049842807946102
tp4238
a(S'Thr118_Tyr199'
p4239
F0.0
tp4240
a(S'Thr118_Ala202'
p4241
F0.0016251897145529012
tp4242
a(S'Thr118_Ser203'
p4243
F0.0
tp4244
a(S'Thr118_Ser204'
p4245
F0.0
tp4246
a(S'Thr118_Ile205'
p4247
F0.0004092820172528194
tp4248
a(S'Thr118_Val206'
p4249
F0.0
tp4250
a(S'Thr118_Ser207'
p4251
F0.0001667250540083023
tp4252
a(S'Thr118_Phe208'
p4253
F0.0
tp4254
a(S'Thr118_Tyr209'
p4255
F0.0
tp4256
a(S'Thr118_Val210'
p4257
F0.0
tp4258
a(S'Thr118_Pro211'
p4259
F0.0
tp4260
a(S'Thr118_Leu212'
p4261
F0.0
tp4262
a(S'Thr118_Phe282'
p4263
F0.00034299728065933014
tp4264
a(S'Thr118_Trp286'
p4265
F0.0
tp4266
a(S'Thr118_Phe289'
p4267
F0.0
tp4268
a(S'Thr118_Phe290'
p4269
F0.0
tp4270
a(S'Thr118_Asn312'
p4271
F0.0
tp4272
a(S'Thr118_Gly315'
p4273
F0.0
tp4274
a(S'Thr118_Tyr316'
p4275
F0.001307844977391688
tp4276
a(S'Thr118_Ser319'
p4277
F0.0
tp4278
a(S'Ala119_Ser120'
p4279
F0.0
tp4280
a(S'Ala119_Ile121'
p4281
F0.0013075099651523984
tp4282
a(S'Ala119_Glu122'
p4283
F0.0
tp4284
a(S'Ala119_Thr123'
p4285
F0.0
tp4286
a(S'Ala119_Leu124'
p4287
F0.0
tp4288
a(S'Ala119_Cys125'
p4289
F0.0
tp4290
a(S'Ala119_Val126'
p4291
F0.0
tp4292
a(S'Ala119_Ile127'
p4293
F0.0
tp4294
a(S'Ala119_Ile153'
p4295
F0.0
tp4296
a(S'Ala119_Ile154'
p4297
F0.0
tp4298
a(S'Ala119_Leu155'
p4299
F0.0
tp4300
a(S'Ala119_Met156'
p4301
F0.0
tp4302
a(S'Ala119_Val157'
p4303
F0.0
tp4304
a(S'Ala119_Trp158'
p4305
F0.0
tp4306
a(S'Ala119_Ile159'
p4307
F0.0
tp4308
a(S'Ala119_Val160'
p4309
F0.0
tp4310
a(S'Ala119_Ser161'
p4311
F0.0
tp4312
a(S'Ala119_Gly162'
p4313
F0.0
tp4314
a(S'Ala119_Leu163'
p4315
F0.0
tp4316
a(S'Ala119_Thr164'
p4317
F0.0
tp4318
a(S'Ala119_Ser165'
p4319
F0.0
tp4320
a(S'Ala119_Ser203'
p4321
F0.0
tp4322
a(S'Ala119_Val206'
p4323
F0.0
tp4324
a(S'Ala119_Ser207'
p4325
F0.0
tp4326
a(S'Ala119_Phe208'
p4327
F0.0009847303359184448
tp4328
a(S'Ala119_Pro211'
p4329
F0.0
tp4330
a(S'Ala119_Phe282'
p4331
F0.0013103743749842598
tp4332
a(S'Ala119_Trp286'
p4333
F0.0005557501800276744
tp4334
a(S'Ala119_Phe290'
p4335
F0.0012800373812106467
tp4336
a(S'Ala119_Asn318'
p4337
F0.0
tp4338
a(S'Ala119_Ser319'
p4339
F0.0
tp4340
a(S'Ala119_Asn322'
p4341
F0.0
tp4342
a(S'Ser120_Ile121'
p4343
F0.0
tp4344
a(S'Ser120_Glu122'
p4345
F0.0
tp4346
a(S'Ser120_Thr123'
p4347
F0.0003832909319532532
tp4348
a(S'Ser120_Leu124'
p4349
F0.0
tp4350
a(S'Ser120_Cys125'
p4351
F0.0
tp4352
a(S'Ser120_Val126'
p4353
F0.0
tp4354
a(S'Ser120_Ile127'
p4355
F0.0
tp4356
a(S'Ser120_Ala128'
p4357
F0.0
tp4358
a(S'Ser120_Ile154'
p4359
F0.0
tp4360
a(S'Ser120_Val157'
p4361
F0.0
tp4362
a(S'Ser120_Trp158'
p4363
F0.0
tp4364
a(S'Ser120_Val160'
p4365
F0.0
tp4366
a(S'Ser120_Ser161'
p4367
F0.0006667834208990695
tp4368
a(S'Ser120_Gly162'
p4369
F0.0
tp4370
a(S'Ser120_Thr164'
p4371
F0.0
tp4372
a(S'Ser120_Val206'
p4373
F0.0
tp4374
a(S'Ser120_Ser207'
p4375
F0.0
tp4376
a(S'Ser120_Phe208'
p4377
F1.846450869063832e-05
tp4378
a(S'Ser120_Pro211'
p4379
F0.0
tp4380
a(S'Ser120_Leu212'
p4381
F0.0
tp4382
a(S'Ser120_Met215'
p4383
F0.0
tp4384
a(S'Ser120_Thr281'
p4385
F0.0
tp4386
a(S'Ser120_Phe282'
p4387
F0.0
tp4388
a(S'Ser120_Cys285'
p4389
F0.0
tp4390
a(S'Ser120_Trp286'
p4391
F0.0
tp4392
a(S'Ser120_Phe290'
p4393
F0.0
tp4394
a(S'Ser120_Ile314'
p4395
F0.0
tp4396
a(S'Ser120_Gly315'
p4397
F0.0
tp4398
a(S'Ser120_Tyr316'
p4399
F0.0
tp4400
a(S'Ser120_Val317'
p4401
F0.0
tp4402
a(S'Ser120_Asn318'
p4403
F0.0
tp4404
a(S'Ser120_Ser319'
p4405
F0.0
tp4406
a(S'Ser120_Gly320'
p4407
F0.0
tp4408
a(S'Ser120_Phe321'
p4409
F0.0
tp4410
a(S'Ser120_Asn322'
p4411
F0.0
tp4412
a(S'Ser120_Pro323'
p4413
F0.0
tp4414
a(S'Ser120_Ile325'
p4415
F0.0
tp4416
a(S'Ser120_Tyr326'
p4417
F0.0
tp4418
a(S'Ile121_Glu122'
p4419
F0.0
tp4420
a(S'Ile121_Thr123'
p4421
F0.0
tp4422
a(S'Ile121_Leu124'
p4423
F0.0
tp4424
a(S'Ile121_Cys125'
p4425
F0.0
tp4426
a(S'Ile121_Val126'
p4427
F0.0
tp4428
a(S'Ile121_Ile127'
p4429
F0.0
tp4430
a(S'Ile121_Ala128'
p4431
F2.7980101342010516e-06
tp4432
a(S'Ile121_Val129'
p4433
F0.0
tp4434
a(S'Ile121_Val157'
p4435
F0.0
tp4436
a(S'Ile121_Trp158'
p4437
F0.0005000875656743021
tp4438
a(S'Ile121_Val160'
p4439
F0.0
tp4440
a(S'Ile121_Ser161'
p4441
F0.003963607324381349
tp4442
a(S'Ile121_Thr164'
p4443
F0.0
tp4444
a(S'Ile121_Ser203'
p4445
F0.0
tp4446
a(S'Ile121_Ser204'
p4447
F0.0
tp4448
a(S'Ile121_Ile205'
p4449
F0.0
tp4450
a(S'Ile121_Val206'
p4451
F0.0
tp4452
a(S'Ile121_Ser207'
p4453
F0.0
tp4454
a(S'Ile121_Phe208'
p4455
F0.0
tp4456
a(S'Ile121_Tyr209'
p4457
F0.0014300213636230647
tp4458
a(S'Ile121_Val210'
p4459
F0.0
tp4460
a(S'Ile121_Pro211'
p4461
F0.0006667834208990694
tp4462
a(S'Ile121_Leu212'
p4463
F0.0
tp4464
a(S'Ile121_Val213'
p4465
F0.0
tp4466
a(S'Ile121_Ile214'
p4467
F0.0
tp4468
a(S'Ile121_Met215'
p4469
F0.0006334442498541157
tp4470
a(S'Ile121_Val216'
p4471
F0.0
tp4472
a(S'Ile121_Tyr219'
p4473
F1.1492188911736378e-05
tp4474
a(S'Ile121_Ile278'
p4475
F0.0
tp4476
a(S'Ile121_Met279'
p4477
F0.0
tp4478
a(S'Ile121_Thr281'
p4479
F0.0
tp4480
a(S'Ile121_Phe282'
p4481
F0.0
tp4482
a(S'Ile121_Thr283'
p4483
F0.0024950913893448936
tp4484
a(S'Ile121_Cys285'
p4485
F0.0
tp4486
a(S'Ile121_Trp286'
p4487
F0.0
tp4488
a(S'Ile121_Leu287'
p4489
F0.0
tp4490
a(S'Ile121_Phe289'
p4491
F0.0
tp4492
a(S'Ile121_Phe290'
p4493
F0.0008552276922249842
tp4494
a(S'Ile121_Asn312'
p4495
F0.0
tp4496
a(S'Ile121_Ile314'
p4497
F0.0
tp4498
a(S'Ile121_Gly315'
p4499
F0.0
tp4500
a(S'Ile121_Tyr316'
p4501
F0.0
tp4502
a(S'Ile121_Val317'
p4503
F0.0
tp4504
a(S'Ile121_Asn318'
p4505
F0.0
tp4506
a(S'Ile121_Ser319'
p4507
F0.0
tp4508
a(S'Ile121_Asn322'
p4509
F0.0
tp4510
a(S'Ile121_Tyr326'
p4511
F0.0
tp4512
a(S'Glu122_Thr123'
p4513
F0.0
tp4514
a(S'Glu122_Leu124'
p4515
F0.0
tp4516
a(S'Glu122_Cys125'
p4517
F0.0
tp4518
a(S'Glu122_Val126'
p4519
F0.0
tp4520
a(S'Glu122_Ile127'
p4521
F0.0
tp4522
a(S'Glu122_Ala128'
p4523
F0.0
tp4524
a(S'Glu122_Val129'
p4525
F0.0
tp4526
a(S'Glu122_Asp130'
p4527
F0.0
tp4528
a(S'Glu122_Ile153'
p4529
F0.0
tp4530
a(S'Glu122_Ile154'
p4531
F0.0011284027122907328
tp4532
a(S'Glu122_Leu155'
p4533
F0.0
tp4534
a(S'Glu122_Met156'
p4535
F0.0
tp4536
a(S'Glu122_Val157'
p4537
F0.0
tp4538
a(S'Glu122_Trp158'
p4539
F0.00012202023190793787
tp4540
a(S'Glu122_Ile159'
p4541
F0.0
tp4542
a(S'Glu122_Val160'
p4543
F0.0
tp4544
a(S'Glu122_Ser161'
p4545
F0.00097511382873174
tp4546
a(S'Glu122_Gly162'
p4547
F0.0
tp4548
a(S'Glu122_Leu163'
p4549
F0.0
tp4550
a(S'Glu122_Thr164'
p4551
F0.0
tp4552
a(S'Glu122_Ser165'
p4553
F0.0
tp4554
a(S'Glu122_Ala202'
p4555
F0.0
tp4556
a(S'Glu122_Ser203'
p4557
F0.0
tp4558
a(S'Glu122_Ser204'
p4559
F0.0
tp4560
a(S'Glu122_Ile205'
p4561
F0.0
tp4562
a(S'Glu122_Val206'
p4563
F0.0
tp4564
a(S'Glu122_Ser207'
p4565
F0.0
tp4566
a(S'Glu122_Phe208'
p4567
F0.0009274372849542736
tp4568
a(S'Glu122_Tyr209'
p4569
F0.0
tp4570
a(S'Glu122_Val210'
p4571
F0.0
tp4572
a(S'Glu122_Pro211'
p4573
F0.0
tp4574
a(S'Glu122_Leu212'
p4575
F0.0
tp4576
a(S'Glu122_Val213'
p4577
F0.0
tp4578
a(S'Glu122_Ile214'
p4579
F0.001008815531350971
tp4580
a(S'Glu122_Met215'
p4581
F0.0
tp4582
a(S'Glu122_Tyr219'
p4583
F3.772115822525162e-05
tp4584
a(S'Glu122_Phe282'
p4585
F0.0
tp4586
a(S'Glu122_Trp286'
p4587
F0.0
tp4588
a(S'Glu122_Phe290'
p4589
F0.0017987663916902705
tp4590
a(S'Glu122_Asn318'
p4591
F0.0
tp4592
a(S'Glu122_Asn322'
p4593
F0.0
tp4594
a(S'Glu122_Tyr326'
p4595
F0.0
tp4596
a(S'Thr123_Leu124'
p4597
F0.0
tp4598
a(S'Thr123_Cys125'
p4599
F0.0012957570627165774
tp4600
a(S'Thr123_Val126'
p4601
F0.0
tp4602
a(S'Thr123_Ile127'
p4603
F0.0
tp4604
a(S'Thr123_Ala128'
p4605
F0.0
tp4606
a(S'Thr123_Val129'
p4607
F0.0
tp4608
a(S'Thr123_Asp130'
p4609
F0.0
tp4610
a(S'Thr123_Arg131'
p4611
F0.0
tp4612
a(S'Thr123_Ala150'
p4613
F0.0
tp4614
a(S'Thr123_Ile153'
p4615
F0.0
tp4616
a(S'Thr123_Ile154'
p4617
F0.0
tp4618
a(S'Thr123_Leu155'
p4619
F0.0
tp4620
a(S'Thr123_Met156'
p4621
F0.0
tp4622
a(S'Thr123_Val157'
p4623
F0.0
tp4624
a(S'Thr123_Trp158'
p4625
F0.0
tp4626
a(S'Thr123_Ile159'
p4627
F0.0
tp4628
a(S'Thr123_Val160'
p4629
F0.0
tp4630
a(S'Thr123_Ser161'
p4631
F0.0
tp4632
a(S'Thr123_Val206'
p4633
F0.0
tp4634
a(S'Thr123_Ser207'
p4635
F0.0
tp4636
a(S'Thr123_Phe208'
p4637
F0.0010170492828918544
tp4638
a(S'Thr123_Val210'
p4639
F0.0
tp4640
a(S'Thr123_Pro211'
p4641
F0.0
tp4642
a(S'Thr123_Leu212'
p4643
F0.0
tp4644
a(S'Thr123_Ile214'
p4645
F0.0
tp4646
a(S'Thr123_Met215'
p4647
F0.0
tp4648
a(S'Thr123_Tyr219'
p4649
F0.0034779347535369167
tp4650
a(S'Thr123_Ile278'
p4651
F0.0
tp4652
a(S'Thr123_Phe282'
p4653
F0.0
tp4654
a(S'Thr123_Asn318'
p4655
F0.0
tp4656
a(S'Thr123_Asn322'
p4657
F0.0
tp4658
a(S'Thr123_Tyr326'
p4659
F0.0
tp4660
a(S'Leu124_Cys125'
p4661
F0.0
tp4662
a(S'Leu124_Val126'
p4663
F0.0014641921531031142
tp4664
a(S'Leu124_Ile127'
p4665
F0.0
tp4666
a(S'Leu124_Ala128'
p4667
F0.0
tp4668
a(S'Leu124_Val129'
p4669
F0.0
tp4670
a(S'Leu124_Asp130'
p4671
F0.00048761384202229056
tp4672
a(S'Leu124_Arg131'
p4673
F0.0
tp4674
a(S'Leu124_Tyr132'
p4675
F0.0
tp4676
a(S'Leu124_Ile153'
p4677
F0.0
tp4678
a(S'Leu124_Ile154'
p4679
F0.0
tp4680
a(S'Leu124_Val157'
p4681
F0.0
tp4682
a(S'Leu124_Trp158'
p4683
F0.0
tp4684
a(S'Leu124_Ser161'
p4685
F0.0
tp4686
a(S'Leu124_Ser207'
p4687
F0.0
tp4688
a(S'Leu124_Phe208'
p4689
F0.0
tp4690
a(S'Leu124_Val210'
p4691
F0.0
tp4692
a(S'Leu124_Pro211'
p4693
F0.0
tp4694
a(S'Leu124_Leu212'
p4695
F0.0
tp4696
a(S'Leu124_Ile214'
p4697
F0.0
tp4698
a(S'Leu124_Met215'
p4699
F0.0
tp4700
a(S'Leu124_Val216'
p4701
F0.0
tp4702
a(S'Leu124_Val218'
p4703
F0.0008001401050788833
tp4704
a(S'Leu124_Tyr219'
p4705
F0.000303851985805527
tp4706
a(S'Leu124_Ile277'
p4707
F0.0
tp4708
a(S'Leu124_Ile278'
p4709
F0.0
tp4710
a(S'Leu124_Met279'
p4711
F0.0
tp4712
a(S'Leu124_Gly280'
p4713
F0.0
tp4714
a(S'Leu124_Thr281'
p4715
F0.0
tp4716
a(S'Leu124_Phe282'
p4717
F0.0
tp4718
a(S'Leu124_Thr283'
p4719
F0.0
tp4720
a(S'Leu124_Leu284'
p4721
F0.0
tp4722
a(S'Leu124_Cys285'
p4723
F0.001112588654935754
tp4724
a(S'Leu124_Trp286'
p4725
F0.0
tp4726
a(S'Leu124_Leu287'
p4727
F0.0
tp4728
a(S'Leu124_Phe290'
p4729
F0.0
tp4730
a(S'Leu124_Gly315'
p4731
F0.0
tp4732
a(S'Leu124_Val317'
p4733
F0.0
tp4734
a(S'Leu124_Asn318'
p4735
F0.0
tp4736
a(S'Leu124_Ser319'
p4737
F0.0009828733552203236
tp4738
a(S'Leu124_Gly320'
p4739
F0.0
tp4740
a(S'Leu124_Phe321'
p4741
F0.0
tp4742
a(S'Leu124_Asn322'
p4743
F0.0
tp4744
a(S'Leu124_Pro323'
p4745
F0.0
tp4746
a(S'Leu124_Ile325'
p4747
F0.0
tp4748
a(S'Leu124_Tyr326'
p4749
F1.079462972448497e-06
tp4750
a(S'Leu124_Cys327'
p4751
F0.0
tp4752
a(S'Cys125_Val126'
p4753
F0.0
tp4754
a(S'Cys125_Ile127'
p4755
F0.001750102148027645
tp4756
a(S'Cys125_Ala128'
p4757
F0.0
tp4758
a(S'Cys125_Val129'
p4759
F0.0
tp4760
a(S'Cys125_Asp130'
p4761
F0.0
tp4762
a(S'Cys125_Arg131'
p4763
F0.0
tp4764
a(S'Cys125_Tyr132'
p4765
F0.0002668068208362646
tp4766
a(S'Cys125_Phe133'
p4767
F0.0
tp4768
a(S'Cys125_Ile153'
p4769
F0.0
tp4770
a(S'Cys125_Ile154'
p4771
F0.0
tp4772
a(S'Cys125_Val157'
p4773
F0.0
tp4774
a(S'Cys125_Ile205'
p4775
F0.0003834851663428395
tp4776
a(S'Cys125_Val206'
p4777
F0.0
tp4778
a(S'Cys125_Ser207'
p4779
F0.0
tp4780
a(S'Cys125_Phe208'
p4781
F0.0
tp4782
a(S'Cys125_Tyr209'
p4783
F0.0
tp4784
a(S'Cys125_Val210'
p4785
F0.0
tp4786
a(S'Cys125_Pro211'
p4787
F0.0
tp4788
a(S'Cys125_Leu212'
p4789
F0.0
tp4790
a(S'Cys125_Val213'
p4791
F0.0
tp4792
a(S'Cys125_Ile214'
p4793
F0.0
tp4794
a(S'Cys125_Met215'
p4795
F0.0
tp4796
a(S'Cys125_Val216'
p4797
F0.0
tp4798
a(S'Cys125_Phe217'
p4799
F0.0
tp4800
a(S'Cys125_Val218'
p4801
F0.0007500875605628777
tp4802
a(S'Cys125_Tyr219'
p4803
F0.004045515703026157
tp4804
a(S'Cys125_Ile278'
p4805
F0.0
tp4806
a(S'Cys125_Met279'
p4807
F0.0
tp4808
a(S'Cys125_Phe282'
p4809
F0.0
tp4810
a(S'Cys125_Asn318'
p4811
F0.0
tp4812
a(S'Cys125_Asn322'
p4813
F0.00021943578682129993
tp4814
a(S'Cys125_Tyr326'
p4815
F0.0
tp4816
a(S'Val126_Ile127'
p4817
F8.24210362348923e-07
tp4818
a(S'Val126_Ala128'
p4819
F0.0
tp4820
a(S'Val126_Val129'
p4821
F0.0
tp4822
a(S'Val126_Asp130'
p4823
F0.0
tp4824
a(S'Val126_Arg131'
p4825
F0.0
tp4826
a(S'Val126_Tyr132'
p4827
F0.0
tp4828
a(S'Val126_Phe133'
p4829
F0.0
tp4830
a(S'Val126_Ala134'
p4831
F0.0
tp4832
a(S'Val126_Tyr141'
p4833
F0.0
tp4834
a(S'Val126_Leu145'
p4835
F0.0
tp4836
a(S'Val126_Lys149'
p4837
F0.0
tp4838
a(S'Val126_Ala150'
p4839
F0.0
tp4840
a(S'Val126_Arg151'
p4841
F0.0
tp4842
a(S'Val126_Val152'
p4843
F0.0
tp4844
a(S'Val126_Ile153'
p4845
F0.0
tp4846
a(S'Val126_Ile154'
p4847
F0.0019909046498501476
tp4848
a(S'Val126_Leu155'
p4849
F0.0
tp4850
a(S'Val126_Met156'
p4851
F0.0
tp4852
a(S'Val126_Val157'
p4853
F0.0
tp4854
a(S'Val126_Trp158'
p4855
F0.0
tp4856
a(S'Val126_Val160'
p4857
F0.0
tp4858
a(S'Val126_Ser161'
p4859
F0.0004445222805993796
tp4860
a(S'Val126_Val206'
p4861
F0.0010000583703015115
tp4862
a(S'Val126_Val210'
p4863
F0.0
tp4864
a(S'Val126_Pro211'
p4865
F0.0
tp4866
a(S'Val126_Leu212'
p4867
F0.0
tp4868
a(S'Val126_Ile214'
p4869
F0.0
tp4870
a(S'Val126_Met215'
p4871
F0.0
tp4872
a(S'Val126_Val218'
p4873
F0.0
tp4874
a(S'Val126_Tyr219'
p4875
F0.0
tp4876
a(S'Val126_Ile278'
p4877
F0.0
tp4878
a(S'Val126_Phe282'
p4879
F0.0
tp4880
a(S'Val126_Tyr326'
p4881
F0.0
tp4882
a(S'Ile127_Ala128'
p4883
F0.0013001517716423208
tp4884
a(S'Ile127_Val129'
p4885
F0.0
tp4886
a(S'Ile127_Asp130'
p4887
F0.0
tp4888
a(S'Ile127_Arg131'
p4889
F0.0005353212076533856
tp4890
a(S'Ile127_Tyr132'
p4891
F0.0
tp4892
a(S'Ile127_Phe133'
p4893
F0.0
tp4894
a(S'Ile127_Ala134'
p4895
F0.0
tp4896
a(S'Ile127_Ile135'
p4897
F0.0
tp4898
a(S'Ile127_Tyr141'
p4899
F0.0
tp4900
a(S'Ile127_Leu145'
p4901
F0.0
tp4902
a(S'Ile127_Ala150'
p4903
F0.0
tp4904
a(S'Ile127_Ile153'
p4905
F0.0
tp4906
a(S'Ile127_Ile154'
p4907
F0.0
tp4908
a(S'Ile127_Val157'
p4909
F0.0
tp4910
a(S'Ile127_Pro211'
p4911
F0.0
tp4912
a(S'Ile127_Ile214'
p4913
F0.0
tp4914
a(S'Ile127_Met215'
p4915
F0.0
tp4916
a(S'Ile127_Val218'
p4917
F0.0
tp4918
a(S'Ile127_Tyr219'
p4919
F0.00010551454302985529
tp4920
a(S'Ile127_Val222'
p4921
F0.0
tp4922
a(S'Ile127_Ile278'
p4923
F0.0009797651961206922
tp4924
a(S'Ile127_Asn322'
p4925
F0.0
tp4926
a(S'Ile127_Pro323'
p4927
F0.0
tp4928
a(S'Ile127_Ile325'
p4929
F0.0
tp4930
a(S'Ile127_Tyr326'
p4931
F0.0
tp4932
a(S'Ile127_Cys327'
p4933
F0.0001291125394215977
tp4934
a(S'Ile127_Phe332'
p4935
F0.0
tp4936
a(S'Ala128_Val129'
p4937
F0.0
tp4938
a(S'Ala128_Asp130'
p4939
F0.0
tp4940
a(S'Ala128_Arg131'
p4941
F0.0
tp4942
a(S'Ala128_Tyr132'
p4943
F0.0
tp4944
a(S'Ala128_Phe133'
p4945
F0.0
tp4946
a(S'Ala128_Ala134'
p4947
F0.0
tp4948
a(S'Ala128_Ile135'
p4949
F0.0007843873271026744
tp4950
a(S'Ala128_Thr136'
p4951
F0.0005715286464849168
tp4952
a(S'Ala128_Tyr141'
p4953
F0.0
tp4954
a(S'Ala128_Leu145'
p4955
F0.0
tp4956
a(S'Ala128_Ile153'
p4957
F0.0
tp4958
a(S'Ala128_Ile154'
p4959
F0.0
tp4960
a(S'Ala128_Val210'
p4961
F0.0
tp4962
a(S'Ala128_Pro211'
p4963
F0.0
tp4964
a(S'Ala128_Leu212'
p4965
F0.0
tp4966
a(S'Ala128_Val213'
p4967
F0.0
tp4968
a(S'Ala128_Ile214'
p4969
F0.0
tp4970
a(S'Ala128_Met215'
p4971
F0.0009797062015515139
tp4972
a(S'Ala128_Val216'
p4973
F0.0
tp4974
a(S'Ala128_Phe217'
p4975
F0.0
tp4976
a(S'Ala128_Val218'
p4977
F9.406621216655419e-05
tp4978
a(S'Ala128_Tyr219'
p4979
F0.0007177649075583738
tp4980
a(S'Ala128_Ser220'
p4981
F0.00012412966303033214
tp4982
a(S'Ala128_Arg221'
p4983
F0.0
tp4984
a(S'Ala128_Val222'
p4985
F0.0
tp4986
a(S'Ala128_Leu275'
p4987
F0.0
tp4988
a(S'Ala128_Ile278'
p4989
F0.0
tp4990
a(S'Ala128_Met279'
p4991
F0.0
tp4992
a(S'Ala128_Phe282'
p4993
F5.135158498500409e-06
tp4994
a(S'Ala128_Tyr326'
p4995
F0.0
tp4996
a(S'Val129_Asp130'
p4997
F0.0
tp4998
a(S'Val129_Arg131'
p4999
F0.0
tp5000
a(S'Val129_Tyr132'
p5001
F0.0020719563924211024
tp5002
a(S'Val129_Phe133'
p5003
F0.0002500875810124535
tp5004
a(S'Val129_Ala134'
p5005
F0.0
tp5006
a(S'Val129_Ile135'
p5007
F0.0
tp5008
a(S'Val129_Thr136'
p5009
F0.0
tp5010
a(S'Val129_Ser137'
p5011
F0.0
tp5012
a(S'Val129_Tyr141'
p5013
F0.0
tp5014
a(S'Val129_Leu145'
p5015
F0.0
tp5016
a(S'Val129_Ile153'
p5017
F0.0
tp5018
a(S'Val129_Val157'
p5019
F0.0
tp5020
a(S'Val129_Val210'
p5021
F0.0
tp5022
a(S'Val129_Pro211'
p5023
F0.0
tp5024
a(S'Val129_Leu212'
p5025
F0.0
tp5026
a(S'Val129_Val213'
p5027
F0.0
tp5028
a(S'Val129_Ile214'
p5029
F0.0
tp5030
a(S'Val129_Met215'
p5031
F0.0
tp5032
a(S'Val129_Val216'
p5033
F0.0
tp5034
a(S'Val129_Phe217'
p5035
F0.0
tp5036
a(S'Val129_Val218'
p5037
F0.0
tp5038
a(S'Val129_Tyr219'
p5039
F0.0028916161793199843
tp5040
a(S'Val129_Ser220'
p5041
F0.0005000583737085851
tp5042
a(S'Val129_Arg221'
p5043
F0.0
tp5044
a(S'Val129_Val222'
p5045
F0.0
tp5046
a(S'Val129_Ile278'
p5047
F0.0
tp5048
a(S'Val129_Tyr326'
p5049
F0.0
tp5050
a(S'Asp130_Arg131'
p5051
F0.0
tp5052
a(S'Asp130_Tyr132'
p5053
F0.00020005838393275267
tp5054
a(S'Asp130_Phe133'
p5055
F0.0
tp5056
a(S'Asp130_Ala134'
p5057
F0.0
tp5058
a(S'Asp130_Ile135'
p5059
F0.0
tp5060
a(S'Asp130_Thr136'
p5061
F0.0
tp5062
a(S'Asp130_Ser137'
p5063
F0.0
tp5064
a(S'Asp130_Pro138'
p5065
F0.0
tp5066
a(S'Asp130_Lys140'
p5067
F0.0
tp5068
a(S'Asp130_Tyr141'
p5069
F0.0005628620311497329
tp5070
a(S'Asp130_Gln142'
p5071
F0.0
tp5072
a(S'Asp130_Leu144'
p5073
F0.0
tp5074
a(S'Asp130_Leu145'
p5075
F0.001986781012946485
tp5076
a(S'Asp130_Thr146'
p5077
F0.0019916774294612446
tp5078
a(S'Asp130_Lys147'
p5079
F0.0
tp5080
a(S'Asp130_Lys149'
p5081
F0.0
tp5082
a(S'Asp130_Ala150'
p5083
F0.0
tp5084
a(S'Asp130_Arg151'
p5085
F0.0
tp5086
a(S'Asp130_Ile153'
p5087
F0.0
tp5088
a(S'Asp130_Ile154'
p5089
F0.0
tp5090
a(S'Asp130_Ile214'
p5091
F0.0
tp5092
a(S'Asp130_Met215'
p5093
F0.0
tp5094
a(S'Asp130_Val218'
p5095
F0.0
tp5096
a(S'Asp130_Tyr219'
p5097
F0.0005556528507492246
tp5098
a(S'Asp130_Val222'
p5099
F0.0
tp5100
a(S'Asp130_Tyr326'
p5101
F0.0006546600859736316
tp5102
a(S'Arg131_Tyr132'
p5103
F0.0
tp5104
a(S'Arg131_Phe133'
p5105
F0.0
tp5106
a(S'Arg131_Ala134'
p5107
F0.0018009109014121376
tp5108
a(S'Arg131_Ile135'
p5109
F0.0006967265484835108
tp5110
a(S'Arg131_Thr136'
p5111
F0.0006748661735471094
tp5112
a(S'Arg131_Ser137'
p5113
F0.000125122003903051
tp5114
a(S'Arg131_Pro138'
p5115
F0.0029450472838378336
tp5116
a(S'Arg131_Tyr141'
p5117
F0.0017519432345520578
tp5118
a(S'Arg131_Gln142'
p5119
F0.0009939810618501928
tp5120
a(S'Arg131_Leu145'
p5121
F0.0001447563754255049
tp5122
a(S'Arg131_Ile214'
p5123
F0.0
tp5124
a(S'Arg131_Met215'
p5125
F0.0
tp5126
a(S'Arg131_Val218'
p5127
F0.0
tp5128
a(S'Arg131_Tyr219'
p5129
F1.0326831296721109e-05
tp5130
a(S'Arg131_Arg221'
p5131
F0.001268514800734815
tp5132
a(S'Arg131_Val222'
p5133
F0.0
tp5134
a(S'Arg131_Thr274'
p5135
F0.0019217929656251507
tp5136
a(S'Arg131_Leu275'
p5137
F0.0
tp5138
a(S'Arg131_Ile278'
p5139
F0.0
tp5140
a(S'Arg131_Ile325'
p5141
F0.0
tp5142
a(S'Arg131_Tyr326'
p5143
F0.0009782691085417695
tp5144
a(S'Arg131_Ser329'
p5145
F0.0
tp5146
a(S'Tyr132_Phe133'
p5147
F5.333774794009305e-06
tp5148
a(S'Tyr132_Ala134'
p5149
F0.0020143489026327507
tp5150
a(S'Tyr132_Ile135'
p5151
F0.001727197805649133
tp5152
a(S'Tyr132_Thr136'
p5153
F0.0
tp5154
a(S'Tyr132_Ser137'
p5155
F0.0
tp5156
a(S'Tyr132_Pro138'
p5157
F0.0
tp5158
a(S'Tyr132_Phe139'
p5159
F0.0
tp5160
a(S'Tyr132_Lys140'
p5161
F0.0
tp5162
a(S'Tyr132_Tyr141'
p5163
F0.0003333917104495347
tp5164
a(S'Tyr132_Leu145'
p5165
F0.0
tp5166
a(S'Tyr132_Ile214'
p5167
F0.0
tp5168
a(S'Tyr132_Met215'
p5169
F0.0
tp5170
a(S'Tyr132_Val216'
p5171
F0.0
tp5172
a(S'Tyr132_Phe217'
p5173
F0.0
tp5174
a(S'Tyr132_Val218'
p5175
F0.0
tp5176
a(S'Tyr132_Tyr219'
p5177
F0.0
tp5178
a(S'Tyr132_Ser220'
p5179
F0.0
tp5180
a(S'Tyr132_Arg221'
p5181
F0.0
tp5182
a(S'Tyr132_Val222'
p5183
F0.0
tp5184
a(S'Tyr132_Phe223'
p5185
F0.0
tp5186
a(S'Tyr132_Gln224'
p5187
F0.0
tp5188
a(S'Tyr132_Glu225'
p5189
F0.0
tp5190
a(S'Tyr132_Ala226'
p5191
F0.0
tp5192
a(S'Tyr132_Leu275'
p5193
F0.00016759118134244367
tp5194
a(S'Tyr132_Ile278'
p5195
F0.0
tp5196
a(S'Phe133_Ala134'
p5197
F0.0
tp5198
a(S'Phe133_Ile135'
p5199
F0.0
tp5200
a(S'Phe133_Thr136'
p5201
F6.178759110745149e-06
tp5202
a(S'Phe133_Ser137'
p5203
F0.0019517532592815726
tp5204
a(S'Phe133_Pro138'
p5205
F0.0006935357309668761
tp5206
a(S'Phe133_Phe139'
p5207
F0.0
tp5208
a(S'Phe133_Lys140'
p5209
F0.0
tp5210
a(S'Phe133_Tyr141'
p5211
F0.0
tp5212
a(S'Phe133_Gln142'
p5213
F0.0008000933979337359
tp5214
a(S'Phe133_Ser143'
p5215
F0.0
tp5216
a(S'Phe133_Leu144'
p5217
F0.0006001050788091626
tp5218
a(S'Phe133_Leu145'
p5219
F0.0
tp5220
a(S'Phe133_Lys149'
p5221
F0.0
tp5222
a(S'Phe133_Ile153'
p5223
F0.0
tp5224
a(S'Phe133_Ile214'
p5225
F0.0
tp5226
a(S'Phe133_Phe217'
p5227
F0.0
tp5228
a(S'Phe133_Val218'
p5229
F0.0
tp5230
a(S'Phe133_Tyr219'
p5231
F0.0
tp5232
a(S'Phe133_Arg221'
p5233
F0.0
tp5234
a(S'Phe133_Val222'
p5235
F0.0
tp5236
a(S'Phe133_Glu225'
p5237
F0.0
tp5238
a(S'Ala134_Ile135'
p5239
F0.0
tp5240
a(S'Ala134_Thr136'
p5241
F0.0
tp5242
a(S'Ala134_Ser137'
p5243
F0.0
tp5244
a(S'Ala134_Pro138'
p5245
F0.0
tp5246
a(S'Ala134_Phe139'
p5247
F0.00033339171044953475
tp5248
a(S'Ala134_Lys140'
p5249
F0.00033082715883069465
tp5250
a(S'Ala134_Tyr141'
p5251
F0.0
tp5252
a(S'Ala134_Gln142'
p5253
F0.0
tp5254
a(S'Ala134_Ser143'
p5255
F0.0
tp5256
a(S'Ala134_Leu144'
p5257
F0.0
tp5258
a(S'Ala134_Leu145'
p5259
F4.0118875105088536e-05
tp5260
a(S'Ala134_Val218'
p5261
F0.0
tp5262
a(S'Ala134_Val222'
p5263
F0.0012383120673839863
tp5264
a(S'Ala134_Glu225'
p5265
F0.0
tp5266
a(S'Ile135_Thr136'
p5267
F0.0
tp5268
a(S'Ile135_Ser137'
p5269
F0.0006522881291403934
tp5270
a(S'Ile135_Pro138'
p5271
F0.0
tp5272
a(S'Ile135_Phe139'
p5273
F0.001984062441409726
tp5274
a(S'Ile135_Lys140'
p5275
F0.0
tp5276
a(S'Ile135_Tyr141'
p5277
F0.0006437908891439287
tp5278
a(S'Ile135_Gln142'
p5279
F0.00022230007201106972
tp5280
a(S'Ile135_Leu145'
p5281
F0.00023372467694951653
tp5282
a(S'Ile135_Val218'
p5283
F0.0
tp5284
a(S'Ile135_Tyr219'
p5285
F0.0
tp5286
a(S'Ile135_Ser220'
p5287
F0.0
tp5288
a(S'Ile135_Arg221'
p5289
F0.0
tp5290
a(S'Ile135_Val222'
p5291
F0.0008001401050788834
tp5292
a(S'Ile135_Phe223'
p5293
F0.0
tp5294
a(S'Ile135_Gln224'
p5295
F0.0
tp5296
a(S'Ile135_Glu225'
p5297
F1.1815541300483034e-06
tp5298
a(S'Ile135_Ala226'
p5299
F0.0
tp5300
a(S'Ile135_Ala271'
p5301
F0.0023145242874295863
tp5302
a(S'Ile135_Thr274'
p5303
F0.0
tp5304
a(S'Ile135_Leu275'
p5305
F0.00023190941221347644
tp5306
a(S'Ile135_Ile278'
p5307
F0.0
tp5308
a(S'Thr136_Ser137'
p5309
F0.0
tp5310
a(S'Thr136_Pro138'
p5311
F0.0
tp5312
a(S'Thr136_Phe139'
p5313
F0.0
tp5314
a(S'Thr136_Lys140'
p5315
F0.0
tp5316
a(S'Thr136_Tyr141'
p5317
F0.0
tp5318
a(S'Thr136_Gln142'
p5319
F0.0008000933979337359
tp5320
a(S'Thr136_Phe217'
p5321
F0.0
tp5322
a(S'Thr136_Val218'
p5323
F0.0
tp5324
a(S'Thr136_Tyr219'
p5325
F0.0
tp5326
a(S'Thr136_Ser220'
p5327
F0.0
tp5328
a(S'Thr136_Arg221'
p5329
F0.0
tp5330
a(S'Thr136_Val222'
p5331
F0.0
tp5332
a(S'Thr136_Phe223'
p5333
F0.0
tp5334
a(S'Thr136_Gln224'
p5335
F0.0
tp5336
a(S'Thr136_Glu225'
p5337
F0.0
tp5338
a(S'Thr136_Ala226'
p5339
F0.0004501050849436533
tp5340
a(S'Thr136_Leu275'
p5341
F0.0006752616955110168
tp5342
a(S'Ser137_Pro138'
p5343
F0.0
tp5344
a(S'Ser137_Phe139'
p5345
F0.0011553371672116464
tp5346
a(S'Ser137_Lys140'
p5347
F0.00048316365050448697
tp5348
a(S'Ser137_Tyr141'
p5349
F0.0
tp5350
a(S'Ser137_Gln142'
p5351
F0.0
tp5352
a(S'Ser137_Ser143'
p5353
F0.0
tp5354
a(S'Ser137_Leu144'
p5355
F0.0010964844813229151
tp5356
a(S'Ser137_Leu145'
p5357
F0.0
tp5358
a(S'Ser137_Arg221'
p5359
F0.0005000583737085851
tp5360
a(S'Ser137_Val222'
p5361
F0.0
tp5362
a(S'Ser137_Glu225'
p5363
F0.0
tp5364
a(S'Pro138_Phe139'
p5365
F0.0
tp5366
a(S'Pro138_Lys140'
p5367
F0.0
tp5368
a(S'Pro138_Tyr141'
p5369
F0.0
tp5370
a(S'Pro138_Gln142'
p5371
F0.0
tp5372
a(S'Pro138_Ser143'
p5373
F0.0
tp5374
a(S'Pro138_Leu144'
p5375
F0.0
tp5376
a(S'Pro138_Leu145'
p5377
F0.0
tp5378
a(S'Pro138_Glu225'
p5379
F0.0
tp5380
a(S'Phe139_Lys140'
p5381
F0.0
tp5382
a(S'Phe139_Tyr141'
p5383
F0.0
tp5384
a(S'Phe139_Gln142'
p5385
F0.0
tp5386
a(S'Phe139_Ser143'
p5387
F0.0
tp5388
a(S'Phe139_Leu144'
p5389
F0.0
tp5390
a(S'Phe139_Leu145'
p5391
F0.0
tp5392
a(S'Lys140_Tyr141'
p5393
F0.0
tp5394
a(S'Lys140_Gln142'
p5395
F0.0008573430189402918
tp5396
a(S'Lys140_Ser143'
p5397
F0.0
tp5398
a(S'Lys140_Leu144'
p5399
F0.0
tp5400
a(S'Lys140_Leu145'
p5401
F0.0005556528507492246
tp5402
a(S'Lys140_Thr146'
p5403
F0.0
tp5404
a(S'Lys140_Lys149'
p5405
F0.0
tp5406
a(S'Lys140_Glu225'
p5407
F0.0
tp5408
a(S'Tyr141_Gln142'
p5409
F0.0
tp5410
a(S'Tyr141_Ser143'
p5411
F0.0
tp5412
a(S'Tyr141_Leu144'
p5413
F0.0
tp5414
a(S'Tyr141_Leu145'
p5415
F0.0
tp5416
a(S'Tyr141_Thr146'
p5417
F0.0005334267367192554
tp5418
a(S'Tyr141_Lys147'
p5419
F0.0
tp5420
a(S'Tyr141_Lys149'
p5421
F0.0
tp5422
a(S'Tyr141_Ala150'
p5423
F0.0009766180956328567
tp5424
a(S'Tyr141_Ile153'
p5425
F0.0
tp5426
a(S'Gln142_Ser143'
p5427
F0.0
tp5428
a(S'Gln142_Leu144'
p5429
F0.0
tp5430
a(S'Gln142_Leu145'
p5431
F0.0
tp5432
a(S'Gln142_Thr146'
p5433
F0.0
tp5434
a(S'Gln142_Lys147'
p5435
F0.0
tp5436
a(S'Gln142_Lys149'
p5437
F0.0009813656904827904
tp5438
a(S'Ser143_Leu144'
p5439
F0.001025335720396639
tp5440
a(S'Ser143_Leu145'
p5441
F0.0
tp5442
a(S'Ser143_Thr146'
p5443
F0.0
tp5444
a(S'Ser143_Lys147'
p5445
F0.0011590526598057157
tp5446
a(S'Ser143_Asn148'
p5447
F0.0
tp5448
a(S'Ser143_Lys149'
p5449
F0.0
tp5450
a(S'Ser143_Ala150'
p5451
F0.0
tp5452
a(S'Leu144_Leu145'
p5453
F0.0
tp5454
a(S'Leu144_Thr146'
p5455
F0.0
tp5456
a(S'Leu144_Lys147'
p5457
F0.0
tp5458
a(S'Leu144_Asn148'
p5459
F0.0
tp5460
a(S'Leu144_Lys149'
p5461
F0.0
tp5462
a(S'Leu144_Ala150'
p5463
F0.0
tp5464
a(S'Leu144_Arg151'
p5465
F0.0
tp5466
a(S'Leu144_Val152'
p5467
F0.0
tp5468
a(S'Leu144_Ile153'
p5469
F0.0
tp5470
a(S'Leu145_Thr146'
p5471
F0.0
tp5472
a(S'Leu145_Lys147'
p5473
F0.0
tp5474
a(S'Leu145_Asn148'
p5475
F0.0
tp5476
a(S'Leu145_Lys149'
p5477
F0.0
tp5478
a(S'Leu145_Ala150'
p5479
F0.0
tp5480
a(S'Leu145_Arg151'
p5481
F0.0
tp5482
a(S'Leu145_Val152'
p5483
F0.0
tp5484
a(S'Leu145_Ile153'
p5485
F0.0
tp5486
a(S'Leu145_Ile154'
p5487
F0.0
tp5488
a(S'Thr146_Lys147'
p5489
F0.0005001167610485035
tp5490
a(S'Thr146_Asn148'
p5491
F7.664486974022039e-06
tp5492
a(S'Thr146_Lys149'
p5493
F0.0
tp5494
a(S'Thr146_Ala150'
p5495
F0.0018216374144857622
tp5496
a(S'Thr146_Arg151'
p5497
F0.0
tp5498
a(S'Thr146_Val152'
p5499
F0.0005646828704385345
tp5500
a(S'Thr146_Ile153'
p5501
F0.0
tp5502
a(S'Thr146_Ile154'
p5503
F0.0
tp5504
a(S'Lys147_Asn148'
p5505
F0.0009773868213395068
tp5506
a(S'Lys147_Lys149'
p5507
F0.0
tp5508
a(S'Lys147_Ala150'
p5509
F0.0
tp5510
a(S'Lys147_Arg151'
p5511
F0.0
tp5512
a(S'Lys147_Val152'
p5513
F0.00025005838052425175
tp5514
a(S'Lys147_Ile153'
p5515
F0.0
tp5516
a(S'Lys147_Ile154'
p5517
F0.0
tp5518
a(S'Lys147_Leu155'
p5519
F0.0
tp5520
a(S'Asn148_Lys149'
p5521
F0.0
tp5522
a(S'Asn148_Ala150'
p5523
F0.0
tp5524
a(S'Asn148_Arg151'
p5525
F0.0018425619993952683
tp5526
a(S'Asn148_Val152'
p5527
F0.001746783457629209
tp5528
a(S'Asn148_Ile153'
p5529
F0.0
tp5530
a(S'Asn148_Ile154'
p5531
F0.00046885946348297207
tp5532
a(S'Asn148_Leu155'
p5533
F0.0
tp5534
a(S'Lys149_Ala150'
p5535
F0.0
tp5536
a(S'Lys149_Arg151'
p5537
F0.0
tp5538
a(S'Lys149_Val152'
p5539
F0.0
tp5540
a(S'Lys149_Ile153'
p5541
F0.0
tp5542
a(S'Lys149_Ile154'
p5543
F0.0
tp5544
a(S'Lys149_Leu155'
p5545
F0.0
tp5546
a(S'Lys149_Met156'
p5547
F0.0
tp5548
a(S'Lys149_Val157'
p5549
F0.0009001050726754533
tp5550
a(S'Ala150_Arg151'
p5551
F0.0
tp5552
a(S'Ala150_Val152'
p5553
F0.0
tp5554
a(S'Ala150_Ile153'
p5555
F0.0
tp5556
a(S'Ala150_Ile154'
p5557
F0.0
tp5558
a(S'Ala150_Leu155'
p5559
F0.0
tp5560
a(S'Ala150_Met156'
p5561
F0.0
tp5562
a(S'Ala150_Val157'
p5563
F0.0
tp5564
a(S'Ala150_Trp158'
p5565
F0.0
tp5566
a(S'Arg151_Val152'
p5567
F0.0
tp5568
a(S'Arg151_Ile153'
p5569
F0.0
tp5570
a(S'Arg151_Ile154'
p5571
F0.0
tp5572
a(S'Arg151_Leu155'
p5573
F0.0
tp5574
a(S'Arg151_Met156'
p5575
F0.0
tp5576
a(S'Arg151_Val157'
p5577
F0.0
tp5578
a(S'Arg151_Trp158'
p5579
F0.0
tp5580
a(S'Arg151_Ile159'
p5581
F0.0
tp5582
a(S'Val152_Ile153'
p5583
F0.0
tp5584
a(S'Val152_Ile154'
p5585
F0.0
tp5586
a(S'Val152_Leu155'
p5587
F0.0
tp5588
a(S'Val152_Met156'
p5589
F0.0
tp5590
a(S'Val152_Val157'
p5591
F0.0
tp5592
a(S'Val152_Trp158'
p5593
F0.0
tp5594
a(S'Val152_Ile159'
p5595
F0.0
tp5596
a(S'Val152_Val160'
p5597
F0.0
tp5598
a(S'Ile153_Ile154'
p5599
F0.0
tp5600
a(S'Ile153_Leu155'
p5601
F0.0
tp5602
a(S'Ile153_Met156'
p5603
F0.0007409569775287135
tp5604
a(S'Ile153_Val157'
p5605
F0.0
tp5606
a(S'Ile153_Trp158'
p5607
F0.0002996595345274967
tp5608
a(S'Ile153_Ile159'
p5609
F0.0019319079426769225
tp5610
a(S'Ile153_Val160'
p5611
F0.0
tp5612
a(S'Ile153_Ser161'
p5613
F0.0
tp5614
a(S'Ile154_Leu155'
p5615
F2.92704601123923e-06
tp5616
a(S'Ile154_Met156'
p5617
F0.0
tp5618
a(S'Ile154_Val157'
p5619
F0.0
tp5620
a(S'Ile154_Trp158'
p5621
F0.0
tp5622
a(S'Ile154_Ile159'
p5623
F0.0
tp5624
a(S'Ile154_Val160'
p5625
F0.0
tp5626
a(S'Ile154_Ser161'
p5627
F0.0
tp5628
a(S'Ile154_Gly162'
p5629
F0.000500087565674302
tp5630
a(S'Leu155_Met156'
p5631
F0.0
tp5632
a(S'Leu155_Val157'
p5633
F0.0
tp5634
a(S'Leu155_Trp158'
p5635
F0.0021009173230648677
tp5636
a(S'Leu155_Ile159'
p5637
F0.0
tp5638
a(S'Leu155_Val160'
p5639
F0.0
tp5640
a(S'Leu155_Ser161'
p5641
F0.0
tp5642
a(S'Leu155_Gly162'
p5643
F0.0
tp5644
a(S'Leu155_Leu163'
p5645
F0.0
tp5646
a(S'Met156_Val157'
p5647
F0.0015126797411129246
tp5648
a(S'Met156_Trp158'
p5649
F0.0
tp5650
a(S'Met156_Ile159'
p5651
F0.0
tp5652
a(S'Met156_Val160'
p5653
F0.0
tp5654
a(S'Met156_Ser161'
p5655
F0.0
tp5656
a(S'Met156_Gly162'
p5657
F0.00033341117403233567
tp5658
a(S'Met156_Leu163'
p5659
F0.0
tp5660
a(S'Met156_Thr164'
p5661
F0.0
tp5662
a(S'Met156_Val206'
p5663
F0.0
tp5664
a(S'Val157_Trp158'
p5665
F0.0010311160971583071
tp5666
a(S'Val157_Ile159'
p5667
F0.0
tp5668
a(S'Val157_Val160'
p5669
F0.0
tp5670
a(S'Val157_Ser161'
p5671
F0.00197813743576123
tp5672
a(S'Val157_Gly162'
p5673
F0.0
tp5674
a(S'Val157_Leu163'
p5675
F0.0
tp5676
a(S'Val157_Thr164'
p5677
F0.0
tp5678
a(S'Val157_Ser165'
p5679
F0.002755469323595049
tp5680
a(S'Val157_Val206'
p5681
F0.0
tp5682
a(S'Val157_Ser207'
p5683
F0.0
tp5684
a(S'Val157_Pro211'
p5685
F0.0
tp5686
a(S'Val157_Ile214'
p5687
F0.0
tp5688
a(S'Trp158_Ile159'
p5689
F0.0
tp5690
a(S'Trp158_Val160'
p5691
F0.0
tp5692
a(S'Trp158_Ser161'
p5693
F1.149348920313515e-06
tp5694
a(S'Trp158_Gly162'
p5695
F0.0
tp5696
a(S'Trp158_Leu163'
p5697
F0.0
tp5698
a(S'Trp158_Thr164'
p5699
F0.0
tp5700
a(S'Trp158_Ser165'
p5701
F0.0
tp5702
a(S'Trp158_Phe166'
p5703
F0.0
tp5704
a(S'Trp158_Leu167'
p5705
F0.0
tp5706
a(S'Ile159_Val160'
p5707
F0.0
tp5708
a(S'Ile159_Ser161'
p5709
F0.0
tp5710
a(S'Ile159_Gly162'
p5711
F0.0
tp5712
a(S'Ile159_Leu163'
p5713
F0.0
tp5714
a(S'Ile159_Thr164'
p5715
F0.0
tp5716
a(S'Ile159_Ser165'
p5717
F0.0
tp5718
a(S'Ile159_Phe166'
p5719
F0.000624197979423099
tp5720
a(S'Ile159_Leu167'
p5721
F0.0
tp5722
a(S'Ile159_Pro168'
p5723
F0.0
tp5724
a(S'Ile159_Val206'
p5725
F0.0
tp5726
a(S'Val160_Ser161'
p5727
F0.0
tp5728
a(S'Val160_Gly162'
p5729
F0.0
tp5730
a(S'Val160_Leu163'
p5731
F0.0
tp5732
a(S'Val160_Thr164'
p5733
F0.0
tp5734
a(S'Val160_Ser165'
p5735
F0.000966779522503264
tp5736
a(S'Val160_Phe166'
p5737
F0.0
tp5738
a(S'Val160_Leu167'
p5739
F0.0002964000960147596
tp5740
a(S'Val160_Pro168'
p5741
F0.0
tp5742
a(S'Val160_Tyr199'
p5743
F0.0
tp5744
a(S'Val160_Ala202'
p5745
F0.0
tp5746
a(S'Val160_Ser203'
p5747
F0.0
tp5748
a(S'Val160_Ile205'
p5749
F0.0
tp5750
a(S'Val160_Val206'
p5751
F0.0
tp5752
a(S'Val160_Ser207'
p5753
F0.0
tp5754
a(S'Val160_Phe208'
p5755
F0.0
tp5756
a(S'Val160_Val210'
p5757
F0.0
tp5758
a(S'Val160_Pro211'
p5759
F0.0
tp5760
a(S'Ser161_Gly162'
p5761
F0.0
tp5762
a(S'Ser161_Leu163'
p5763
F0.0
tp5764
a(S'Ser161_Thr164'
p5765
F0.0
tp5766
a(S'Ser161_Ser165'
p5767
F0.0
tp5768
a(S'Ser161_Phe166'
p5769
F0.0
tp5770
a(S'Ser161_Leu167'
p5771
F0.0
tp5772
a(S'Ser161_Pro168'
p5773
F0.0
tp5774
a(S'Ser161_Ile169'
p5775
F0.0
tp5776
a(S'Ser161_Tyr199'
p5777
F0.0
tp5778
a(S'Ser161_Ser203'
p5779
F0.0
tp5780
a(S'Ser161_Val206'
p5781
F0.0
tp5782
a(S'Ser161_Ser207'
p5783
F0.0
tp5784
a(S'Ser161_Phe208'
p5785
F0.0
tp5786
a(S'Ser161_Pro211'
p5787
F0.0012968261382953073
tp5788
a(S'Gly162_Leu163'
p5789
F0.0
tp5790
a(S'Gly162_Thr164'
p5791
F0.0
tp5792
a(S'Gly162_Ser165'
p5793
F0.0006318002046630407
tp5794
a(S'Gly162_Phe166'
p5795
F0.0
tp5796
a(S'Gly162_Leu167'
p5797
F0.0
tp5798
a(S'Gly162_Pro168'
p5799
F0.0
tp5800
a(S'Gly162_Ile169'
p5801
F0.0
tp5802
a(S'Gly162_Gln170'
p5803
F0.0008622789346889809
tp5804
a(S'Gly162_Met171'
p5805
F0.0
tp5806
a(S'Gly162_Trp173'
p5807
F0.0
tp5808
a(S'Gly162_Tyr199'
p5809
F0.0
tp5810
a(S'Gly162_Ser203'
p5811
F0.0
tp5812
a(S'Gly162_Val206'
p5813
F0.0
tp5814
a(S'Gly162_Ser207'
p5815
F0.00033341117403233567
tp5816
a(S'Leu163_Thr164'
p5817
F0.0
tp5818
a(S'Leu163_Ser165'
p5819
F0.0
tp5820
a(S'Leu163_Phe166'
p5821
F0.0
tp5822
a(S'Leu163_Leu167'
p5823
F1.2636379900990995e-05
tp5824
a(S'Leu163_Pro168'
p5825
F0.0
tp5826
a(S'Leu163_Ile169'
p5827
F0.0
tp5828
a(S'Leu163_Gln170'
p5829
F0.0010071737289718509
tp5830
a(S'Leu163_Met171'
p5831
F0.0
tp5832
a(S'Leu163_Trp173'
p5833
F0.0
tp5834
a(S'Leu163_Tyr174'
p5835
F0.0
tp5836
a(S'Leu163_Tyr199'
p5837
F0.0
tp5838
a(S'Leu163_Ala202'
p5839
F0.0
tp5840
a(S'Leu163_Ser203'
p5841
F0.0
tp5842
a(S'Leu163_Val206'
p5843
F0.0
tp5844
a(S'Leu163_Ser207'
p5845
F0.0
tp5846
a(S'Thr164_Ser165'
p5847
F0.0019216030717264334
tp5848
a(S'Thr164_Phe166'
p5849
F0.0
tp5850
a(S'Thr164_Leu167'
p5851
F0.0
tp5852
a(S'Thr164_Pro168'
p5853
F0.0
tp5854
a(S'Thr164_Ile169'
p5855
F0.0
tp5856
a(S'Thr164_Gln170'
p5857
F0.0
tp5858
a(S'Thr164_Met171'
p5859
F0.0
tp5860
a(S'Thr164_Trp173'
p5861
F0.0
tp5862
a(S'Thr164_Tyr174'
p5863
F0.0
tp5864
a(S'Thr164_Phe193'
p5865
F0.0
tp5866
a(S'Thr164_Thr195'
p5867
F0.0
tp5868
a(S'Thr164_Ala198'
p5869
F0.0
tp5870
a(S'Thr164_Tyr199'
p5871
F0.0
tp5872
a(S'Thr164_Ala200'
p5873
F0.0
tp5874
a(S'Thr164_Ile201'
p5875
F0.0
tp5876
a(S'Thr164_Ala202'
p5877
F0.0
tp5878
a(S'Thr164_Ser203'
p5879
F0.0
tp5880
a(S'Thr164_Ser204'
p5881
F0.0
tp5882
a(S'Thr164_Ile205'
p5883
F0.0
tp5884
a(S'Thr164_Val206'
p5885
F0.0
tp5886
a(S'Thr164_Ser207'
p5887
F0.0
tp5888
a(S'Thr164_Phe208'
p5889
F0.0
tp5890
a(S'Thr164_Pro211'
p5891
F0.0
tp5892
a(S'Thr164_Phe290'
p5893
F0.0
tp5894
a(S'Ser165_Phe166'
p5895
F0.001250291902621259
tp5896
a(S'Ser165_Leu167'
p5897
F0.0
tp5898
a(S'Ser165_Pro168'
p5899
F0.0
tp5900
a(S'Ser165_Ile169'
p5901
F0.0
tp5902
a(S'Ser165_Gln170'
p5903
F0.0
tp5904
a(S'Ser165_Met171'
p5905
F0.0
tp5906
a(S'Ser165_His172'
p5907
F0.0010000583703015115
tp5908
a(S'Ser165_Trp173'
p5909
F0.0
tp5910
a(S'Ser165_Tyr174'
p5911
F0.0
tp5912
a(S'Ser165_Arg175'
p5913
F0.0
tp5914
a(S'Ser165_Phe193'
p5915
F0.0
tp5916
a(S'Ser165_Thr195'
p5917
F0.0
tp5918
a(S'Ser165_Tyr199'
p5919
F0.0
tp5920
a(S'Ser165_Ala202'
p5921
F0.0
tp5922
a(S'Ser165_Ser203'
p5923
F0.0
tp5924
a(S'Ser165_Ser204'
p5925
F0.0
tp5926
a(S'Ser165_Val206'
p5927
F0.0
tp5928
a(S'Ser165_Ser207'
p5929
F0.0
tp5930
a(S'Phe166_Leu167'
p5931
F0.0
tp5932
a(S'Phe166_Pro168'
p5933
F0.0
tp5934
a(S'Phe166_Ile169'
p5935
F0.0
tp5936
a(S'Phe166_Gln170'
p5937
F0.0007822341703012836
tp5938
a(S'Phe166_Met171'
p5939
F0.00010959251069195764
tp5940
a(S'Phe166_His172'
p5941
F0.0
tp5942
a(S'Phe166_Trp173'
p5943
F0.0
tp5944
a(S'Phe166_Tyr174'
p5945
F0.0
tp5946
a(S'Phe166_Arg175'
p5947
F0.00019055404481073897
tp5948
a(S'Phe166_Tyr199'
p5949
F0.0
tp5950
a(S'Phe166_Ser203'
p5951
F0.0
tp5952
a(S'Phe166_Ser207'
p5953
F0.0
tp5954
a(S'Leu167_Pro168'
p5955
F0.0003333917104495347
tp5956
a(S'Leu167_Ile169'
p5957
F0.0
tp5958
a(S'Leu167_Gln170'
p5959
F0.0
tp5960
a(S'Leu167_Met171'
p5961
F0.0
tp5962
a(S'Leu167_His172'
p5963
F0.0
tp5964
a(S'Leu167_Trp173'
p5965
F3.3322354342431655e-05
tp5966
a(S'Leu167_Tyr174'
p5967
F0.0
tp5968
a(S'Leu167_Arg175'
p5969
F0.0
tp5970
a(S'Leu167_Tyr199'
p5971
F0.0
tp5972
a(S'Pro168_Ile169'
p5973
F0.0
tp5974
a(S'Pro168_Gln170'
p5975
F0.00021437330041208138
tp5976
a(S'Pro168_Met171'
p5977
F0.0
tp5978
a(S'Pro168_His172'
p5979
F0.0
tp5980
a(S'Pro168_Trp173'
p5981
F0.0
tp5982
a(S'Pro168_Tyr174'
p5983
F0.0
tp5984
a(S'Pro168_Arg175'
p5985
F0.0
tp5986
a(S'Pro168_Ala176'
p5987
F0.0
tp5988
a(S'Pro168_Tyr185'
p5989
F0.0
tp5990
a(S'Pro168_Phe193'
p5991
F0.0
tp5992
a(S'Pro168_Phe194'
p5993
F0.0
tp5994
a(S'Pro168_Thr195'
p5995
F0.0
tp5996
a(S'Pro168_Asn196'
p5997
F0.0
tp5998
a(S'Pro168_Ala198'
p5999
F0.0
tp6000
a(S'Pro168_Tyr199'
p6001
F0.0
tp6002
a(S'Pro168_Ala200'
p6003
F0.0
tp6004
a(S'Pro168_Ala202'
p6005
F0.0
tp6006
a(S'Pro168_Ser203'
p6007
F0.0
tp6008
a(S'Pro168_Ser204'
p6009
F0.0
tp6010
a(S'Pro168_Val206'
p6011
F0.0
tp6012
a(S'Pro168_Ser207'
p6013
F0.0
tp6014
a(S'Ile169_Gln170'
p6015
F0.0
tp6016
a(S'Ile169_Met171'
p6017
F0.0
tp6018
a(S'Ile169_His172'
p6019
F0.0
tp6020
a(S'Ile169_Trp173'
p6021
F0.0034456952741905534
tp6022
a(S'Ile169_Tyr174'
p6023
F0.0
tp6024
a(S'Ile169_Arg175'
p6025
F0.0
tp6026
a(S'Ile169_Ala176'
p6027
F0.0003693385549527741
tp6028
a(S'Ile169_Tyr185'
p6029
F0.0
tp6030
a(S'Ile169_Cys191'
p6031
F0.0
tp6032
a(S'Ile169_Asp192'
p6033
F0.0
tp6034
a(S'Ile169_Phe193'
p6035
F0.0
tp6036
a(S'Ile169_Phe194'
p6037
F0.0
tp6038
a(S'Ile169_Thr195'
p6039
F0.0
tp6040
a(S'Ile169_Asn196'
p6041
F0.0
tp6042
a(S'Ile169_Tyr199'
p6043
F0.0
tp6044
a(S'Ile169_Ala200'
p6045
F0.0010194834684018664
tp6046
a(S'Ile169_Ser203'
p6047
F0.0008757877105569315
tp6048
a(S'Ile169_Ser207'
p6049
F0.0
tp6050
a(S'Gln170_Met171'
p6051
F0.0
tp6052
a(S'Gln170_His172'
p6053
F0.0
tp6054
a(S'Gln170_Trp173'
p6055
F0.0
tp6056
a(S'Gln170_Tyr174'
p6057
F0.002768569864892197
tp6058
a(S'Gln170_Arg175'
p6059
F0.0
tp6060
a(S'Gln170_Phe193'
p6061
F0.0
tp6062
a(S'Gln170_Thr195'
p6063
F0.0
tp6064
a(S'Gln170_Tyr199'
p6065
F0.002088456481366179
tp6066
a(S'Met171_His172'
p6067
F0.0
tp6068
a(S'Met171_Trp173'
p6069
F0.0
tp6070
a(S'Met171_Tyr174'
p6071
F0.0
tp6072
a(S'Met171_Arg175'
p6073
F0.0
tp6074
a(S'Met171_Asn196'
p6075
F0.0
tp6076
a(S'Met171_Tyr199'
p6077
F0.0
tp6078
a(S'His172_Trp173'
p6079
F0.0
tp6080
a(S'His172_Tyr174'
p6081
F0.0
tp6082
a(S'His172_Arg175'
p6083
F0.0
tp6084
a(S'His172_Ala176'
p6085
F0.0
tp6086
a(S'His172_Thr177'
p6087
F0.0
tp6088
a(S'His172_Ile182'
p6089
F0.0
tp6090
a(S'His172_Tyr185'
p6091
F0.0
tp6092
a(S'His172_Ala186'
p6093
F0.0008520010378154781
tp6094
a(S'His172_Phe194'
p6095
F0.0
tp6096
a(S'His172_Thr195'
p6097
F0.0
tp6098
a(S'His172_Asn196'
p6099
F0.00015161249216849576
tp6100
a(S'His172_Tyr199'
p6101
F0.0
tp6102
a(S'Trp173_Tyr174'
p6103
F0.0
tp6104
a(S'Trp173_Arg175'
p6105
F0.0006001751517982582
tp6106
a(S'Trp173_Ala176'
p6107
F0.0
tp6108
a(S'Trp173_Thr177'
p6109
F0.0
tp6110
a(S'Trp173_Tyr185'
p6111
F0.0
tp6112
a(S'Trp173_Phe193'
p6113
F0.0
tp6114
a(S'Trp173_Phe194'
p6115
F0.0
tp6116
a(S'Trp173_Thr195'
p6117
F0.0
tp6118
a(S'Trp173_Asn196'
p6119
F0.0
tp6120
a(S'Trp173_Gln197'
p6121
F0.0
tp6122
a(S'Trp173_Ala198'
p6123
F0.0
tp6124
a(S'Trp173_Tyr199'
p6125
F0.0
tp6126
a(S'Trp173_Ala200'
p6127
F0.0
tp6128
a(S'Trp173_Ala202'
p6129
F0.0
tp6130
a(S'Trp173_Ser203'
p6131
F0.0
tp6132
a(S'Tyr174_Arg175'
p6133
F0.0
tp6134
a(S'Tyr174_Ala176'
p6135
F0.0
tp6136
a(S'Tyr174_Thr177'
p6137
F0.00126085258973357
tp6138
a(S'Tyr174_His178'
p6139
F0.0
tp6140
a(S'Tyr174_Ala181'
p6141
F0.0
tp6142
a(S'Tyr174_Ile182'
p6143
F0.0
tp6144
a(S'Tyr174_Cys184'
p6145
F5.389414868169072e-05
tp6146
a(S'Tyr174_Tyr185'
p6147
F0.0
tp6148
a(S'Tyr174_Ala186'
p6149
F0.00150901181023562
tp6150
a(S'Tyr174_Cys190'
p6151
F0.0
tp6152
a(S'Tyr174_Cys191'
p6153
F0.0003751094698739113
tp6154
a(S'Tyr174_Asp192'
p6155
F0.0
tp6156
a(S'Tyr174_Phe193'
p6157
F0.0
tp6158
a(S'Tyr174_Phe194'
p6159
F0.0
tp6160
a(S'Tyr174_Thr195'
p6161
F0.0
tp6162
a(S'Tyr174_Asn196'
p6163
F0.0
tp6164
a(S'Tyr174_Gln197'
p6165
F0.0
tp6166
a(S'Tyr174_Ala198'
p6167
F0.0
tp6168
a(S'Tyr174_Tyr199'
p6169
F0.0
tp6170
a(S'Tyr174_Ala200'
p6171
F0.0
tp6172
a(S'Tyr174_Ile201'
p6173
F0.0
tp6174
a(S'Tyr174_Ala202'
p6175
F0.0
tp6176
a(S'Tyr174_Ser203'
p6177
F0.0
tp6178
a(S'Tyr174_Val297'
p6179
F0.0
tp6180
a(S'Tyr174_Lys305'
p6181
F0.0
tp6182
a(S'Tyr174_Tyr308'
p6183
F0.0
tp6184
a(S'Arg175_Ala176'
p6185
F0.0
tp6186
a(S'Arg175_Thr177'
p6187
F0.0031430851168225632
tp6188
a(S'Arg175_His178'
p6189
F0.0
tp6190
a(S'Arg175_Gln179'
p6191
F0.0
tp6192
a(S'Arg175_Ala181'
p6193
F0.0
tp6194
a(S'Arg175_Ile182'
p6195
F0.0
tp6196
a(S'Arg175_Asn183'
p6197
F0.0
tp6198
a(S'Arg175_Cys184'
p6199
F2.9560154774396863e-05
tp6200
a(S'Arg175_Tyr185'
p6201
F0.0
tp6202
a(S'Arg175_Ala186'
p6203
F3.366296088109573e-06
tp6204
a(S'Arg175_Glu187'
p6205
F6.6827172080470105e-06
tp6206
a(S'Arg175_Glu188'
p6207
F0.0
tp6208
a(S'Arg175_Cys190'
p6209
F0.0015768204062538975
tp6210
a(S'Arg175_Cys191'
p6211
F0.0009290657000409115
tp6212
a(S'Arg175_Asp192'
p6213
F0.001523268253720348
tp6214
a(S'Arg175_Phe193'
p6215
F0.0006470116353445026
tp6216
a(S'Arg175_Phe194'
p6217
F0.0
tp6218
a(S'Arg175_Thr195'
p6219
F0.0
tp6220
a(S'Arg175_Asn196'
p6221
F0.0
tp6222
a(S'Arg175_Gln197'
p6223
F0.0
tp6224
a(S'Arg175_Ala198'
p6225
F0.00026674451191033695
tp6226
a(S'Arg175_Tyr199'
p6227
F0.0
tp6228
a(S'Arg175_Ala200'
p6229
F0.0
tp6230
a(S'Ala176_Thr177'
p6231
F0.0
tp6232
a(S'Ala176_His178'
p6233
F0.0
tp6234
a(S'Ala176_Gln179'
p6235
F0.0
tp6236
a(S'Ala176_Glu180'
p6237
F0.0016412864950112716
tp6238
a(S'Ala176_Ala181'
p6239
F1.3270619393576666e-05
tp6240
a(S'Ala176_Ile182'
p6241
F0.0
tp6242
a(S'Ala176_Asn183'
p6243
F0.0
tp6244
a(S'Ala176_Cys184'
p6245
F0.0
tp6246
a(S'Ala176_Tyr185'
p6247
F0.0
tp6248
a(S'Ala176_Ala186'
p6249
F0.0
tp6250
a(S'Ala176_Asp192'
p6251
F0.0
tp6252
a(S'Ala176_Phe193'
p6253
F0.0010000583703015115
tp6254
a(S'Ala176_Phe194'
p6255
F0.0
tp6256
a(S'Ala176_Thr195'
p6257
F0.0
tp6258
a(S'Ala176_Asn196'
p6259
F0.0
tp6260
a(S'Ala176_Gln197'
p6261
F0.0
tp6262
a(S'Ala176_Ala198'
p6263
F0.0
tp6264
a(S'Ala176_Tyr199'
p6265
F0.0
tp6266
a(S'Ala176_Ala200'
p6267
F0.0
tp6268
a(S'Ala176_Asp300'
p6269
F0.001744973310959626
tp6270
a(S'Thr177_His178'
p6271
F0.0
tp6272
a(S'Thr177_Gln179'
p6273
F0.0
tp6274
a(S'Thr177_Glu180'
p6275
F0.0
tp6276
a(S'Thr177_Ala181'
p6277
F0.0005001167610485035
tp6278
a(S'Thr177_Ile182'
p6279
F0.0
tp6280
a(S'Thr177_Asn183'
p6281
F0.0
tp6282
a(S'Thr177_Cys184'
p6283
F0.0
tp6284
a(S'Thr177_Tyr185'
p6285
F0.0
tp6286
a(S'Thr177_Phe194'
p6287
F0.0
tp6288
a(S'Thr177_Thr195'
p6289
F0.0
tp6290
a(S'Thr177_Asn196'
p6291
F0.0
tp6292
a(S'Thr177_Gln197'
p6293
F0.0
tp6294
a(S'Thr177_Ala198'
p6295
F0.0
tp6296
a(S'His178_Gln179'
p6297
F0.0
tp6298
a(S'His178_Glu180'
p6299
F0.0
tp6300
a(S'His178_Ala181'
p6301
F0.0
tp6302
a(S'His178_Ile182'
p6303
F0.0004910237290294397
tp6304
a(S'His178_Asn183'
p6305
F0.0
tp6306
a(S'His178_Cys184'
p6307
F0.00026674451191033695
tp6308
a(S'His178_Tyr185'
p6309
F0.0
tp6310
a(S'His178_Ala186'
p6311
F0.0
tp6312
a(S'His178_Cys190'
p6313
F0.0
tp6314
a(S'His178_Asp192'
p6315
F0.0
tp6316
a(S'His178_Phe193'
p6317
F0.0005000583737085851
tp6318
a(S'His178_Phe194'
p6319
F0.0
tp6320
a(S'His178_Thr195'
p6321
F0.0
tp6322
a(S'His178_Asn196'
p6323
F0.0
tp6324
a(S'His178_Gln197'
p6325
F0.0
tp6326
a(S'His178_His296'
p6327
F0.0
tp6328
a(S'His178_Asp300'
p6329
F0.0
tp6330
a(S'His178_Asn301'
p6331
F0.0
tp6332
a(S'His178_Lys305'
p6333
F0.0
tp6334
a(S'Gln179_Glu180'
p6335
F0.0
tp6336
a(S'Gln179_Ala181'
p6337
F0.0
tp6338
a(S'Gln179_Ile182'
p6339
F0.0
tp6340
a(S'Gln179_Asn183'
p6341
F0.0
tp6342
a(S'Gln179_Cys184'
p6343
F0.001933446182582921
tp6344
a(S'Gln179_Tyr185'
p6345
F0.0
tp6346
a(S'Gln179_Ala186'
p6347
F0.0
tp6348
a(S'Gln179_Glu187'
p6349
F0.0
tp6350
a(S'Gln179_Cys190'
p6351
F0.0005000583737085851
tp6352
a(S'Gln179_Phe194'
p6353
F0.0
tp6354
a(S'Glu180_Ala181'
p6355
F0.0033955513813328036
tp6356
a(S'Glu180_Ile182'
p6357
F0.0
tp6358
a(S'Glu180_Asn183'
p6359
F0.00035565934921378254
tp6360
a(S'Glu180_Cys184'
p6361
F0.0
tp6362
a(S'Glu180_Tyr185'
p6363
F0.0005926963741325062
tp6364
a(S'Glu180_Ala186'
p6365
F0.0
tp6366
a(S'Glu180_Glu187'
p6367
F0.0
tp6368
a(S'Glu180_Cys190'
p6369
F0.00022230007201106978
tp6370
a(S'Glu180_Cys191'
p6371
F0.0
tp6372
a(S'Glu180_Asp192'
p6373
F0.0
tp6374
a(S'Glu180_Phe193'
p6375
F0.0015330789842425674
tp6376
a(S'Glu180_Phe194'
p6377
F0.0
tp6378
a(S'Glu180_Thr195'
p6379
F0.0
tp6380
a(S'Glu180_His296'
p6381
F0.00028583106721610845
tp6382
a(S'Glu180_Asp300'
p6383
F0.0
tp6384
a(S'Glu180_Asn301'
p6385
F0.0
tp6386
a(S'Glu180_Ile303'
p6387
F0.0
tp6388
a(S'Glu180_Lys305'
p6389
F0.0
tp6390
a(S'Ala181_Ile182'
p6391
F0.0
tp6392
a(S'Ala181_Asn183'
p6393
F0.0009819328065550394
tp6394
a(S'Ala181_Cys184'
p6395
F0.0
tp6396
a(S'Ala181_Tyr185'
p6397
F0.0006578929752870806
tp6398
a(S'Ala181_Ala186'
p6399
F0.0
tp6400
a(S'Ala181_Glu187'
p6401
F0.0
tp6402
a(S'Ala181_Glu188'
p6403
F0.0
tp6404
a(S'Ala181_Cys190'
p6405
F0.0
tp6406
a(S'Ala181_Cys191'
p6407
F0.0
tp6408
a(S'Ala181_Asp192'
p6409
F0.0
tp6410
a(S'Ala181_Phe193'
p6411
F0.00047630167718905114
tp6412
a(S'Ala181_Phe194'
p6413
F0.0015584197344031604
tp6414
a(S'Ala181_Thr195'
p6415
F0.0009232924819356984
tp6416
a(S'Ala181_Asn196'
p6417
F0.001333411160402015
tp6418
a(S'Ala181_Lys305'
p6419
F0.0
tp6420
a(S'Ile182_Asn183'
p6421
F0.0
tp6422
a(S'Ile182_Cys184'
p6423
F0.0
tp6424
a(S'Ile182_Tyr185'
p6425
F0.0
tp6426
a(S'Ile182_Ala186'
p6427
F0.0
tp6428
a(S'Ile182_Glu187'
p6429
F0.0
tp6430
a(S'Ile182_Glu188'
p6431
F0.0
tp6432
a(S'Ile182_Cys190'
p6433
F0.0
tp6434
a(S'Ile182_Asp192'
p6435
F0.0
tp6436
a(S'Ile182_Phe193'
p6437
F0.0
tp6438
a(S'Ile182_Phe194'
p6439
F0.0
tp6440
a(S'Ile182_Thr195'
p6441
F0.0
tp6442
a(S'Asn183_Cys184'
p6443
F0.0
tp6444
a(S'Asn183_Tyr185'
p6445
F0.0
tp6446
a(S'Asn183_Ala186'
p6447
F0.0
tp6448
a(S'Asn183_Glu187'
p6449
F0.0
tp6450
a(S'Asn183_Glu188'
p6451
F0.0
tp6452
a(S'Asn183_Thr189'
p6453
F0.0
tp6454
a(S'Asn183_Cys190'
p6455
F0.0
tp6456
a(S'Asn183_Cys191'
p6457
F0.0
tp6458
a(S'Asn183_Asp192'
p6459
F0.0
tp6460
a(S'Asn183_Phe194'
p6461
F0.0
tp6462
a(S'Cys184_Tyr185'
p6463
F0.0
tp6464
a(S'Cys184_Ala186'
p6465
F0.0
tp6466
a(S'Cys184_Glu187'
p6467
F0.0005228007061073171
tp6468
a(S'Cys184_Glu188'
p6469
F0.0
tp6470
a(S'Cys184_Thr189'
p6471
F0.0
tp6472
a(S'Cys184_Cys190'
p6473
F0.0
tp6474
a(S'Cys184_Cys191'
p6475
F0.0
tp6476
a(S'Cys184_Asp192'
p6477
F0.0
tp6478
a(S'Cys184_Phe193'
p6479
F0.0
tp6480
a(S'Cys184_Phe194'
p6481
F0.0
tp6482
a(S'Cys184_Thr195'
p6483
F0.0003258146261211374
tp6484
a(S'Cys184_Lys305'
p6485
F0.0
tp6486
a(S'Tyr185_Ala186'
p6487
F0.0
tp6488
a(S'Tyr185_Glu187'
p6489
F0.0
tp6490
a(S'Tyr185_Glu188'
p6491
F0.0
tp6492
a(S'Tyr185_Thr189'
p6493
F0.0
tp6494
a(S'Tyr185_Cys190'
p6495
F0.0
tp6496
a(S'Tyr185_Cys191'
p6497
F0.0
tp6498
a(S'Tyr185_Asp192'
p6499
F0.0
tp6500
a(S'Tyr185_Phe193'
p6501
F0.0
tp6502
a(S'Tyr185_Phe194'
p6503
F0.0
tp6504
a(S'Tyr185_Thr195'
p6505
F0.0
tp6506
a(S'Tyr185_Asn196'
p6507
F0.0
tp6508
a(S'Tyr185_Gln197'
p6509
F0.0
tp6510
a(S'Tyr185_Tyr199'
p6511
F0.0
tp6512
a(S'Tyr185_Lys305'
p6513
F0.0
tp6514
a(S'Ala186_Glu187'
p6515
F0.0
tp6516
a(S'Ala186_Glu188'
p6517
F0.0008006292054629949
tp6518
a(S'Ala186_Thr189'
p6519
F0.00016029383366939325
tp6520
a(S'Ala186_Cys190'
p6521
F0.0
tp6522
a(S'Ala186_Cys191'
p6523
F0.0
tp6524
a(S'Ala186_Asp192'
p6525
F0.0
tp6526
a(S'Ala186_Phe194'
p6527
F0.00024895680175542626
tp6528
a(S'Glu187_Glu188'
p6529
F0.0
tp6530
a(S'Glu187_Thr189'
p6531
F0.003291613726578773
tp6532
a(S'Glu187_Cys190'
p6533
F0.0
tp6534
a(S'Glu187_Cys191'
p6535
F0.0
tp6536
a(S'Glu187_Asp192'
p6537
F0.0
tp6538
a(S'Glu187_Phe194'
p6539
F1.2536332932932103e-06
tp6540
a(S'Glu188_Thr189'
p6541
F0.00010995665567643024
tp6542
a(S'Glu188_Cys190'
p6543
F0.0
tp6544
a(S'Glu188_Cys191'
p6545
F0.0
tp6546
a(S'Glu188_Asp192'
p6547
F0.0
tp6548
a(S'Thr189_Cys190'
p6549
F0.0
tp6550
a(S'Thr189_Cys191'
p6551
F0.0
tp6552
a(S'Thr189_Asp192'
p6553
F0.0
tp6554
a(S'Cys190_Cys191'
p6555
F0.00029181385055960016
tp6556
a(S'Cys190_Asp192'
p6557
F0.00033341117403233567
tp6558
a(S'Cys190_Phe193'
p6559
F0.0
tp6560
a(S'Cys190_Phe194'
p6561
F0.0
tp6562
a(S'Cys190_Lys305'
p6563
F0.0
tp6564
a(S'Cys191_Asp192'
p6565
F0.0
tp6566
a(S'Cys191_Phe193'
p6567
F0.0
tp6568
a(S'Cys191_Phe194'
p6569
F0.0
tp6570
a(S'Cys191_Lys305'
p6571
F0.0
tp6572
a(S'Cys191_Tyr308'
p6573
F0.0
tp6574
a(S'Cys191_Ile309'
p6575
F0.0
tp6576
a(S'Cys191_Tyr316'
p6577
F0.0
tp6578
a(S'Asp192_Phe193'
p6579
F0.0
tp6580
a(S'Asp192_Phe194'
p6581
F0.0016001867958674717
tp6582
a(S'Asp192_Thr195'
p6583
F0.0
tp6584
a(S'Asp192_Lys305'
p6585
F0.0
tp6586
a(S'Asp192_Glu306'
p6587
F0.0
tp6588
a(S'Asp192_Tyr308'
p6589
F0.0
tp6590
a(S'Asp192_Ile309'
p6591
F0.0
tp6592
a(S'Phe193_Phe194'
p6593
F0.0
tp6594
a(S'Phe193_Thr195'
p6595
F0.0
tp6596
a(S'Phe193_Asn196'
p6597
F0.0
tp6598
a(S'Phe193_Gln197'
p6599
F0.0
tp6600
a(S'Phe193_Ala198'
p6601
F0.0
tp6602
a(S'Phe193_Tyr199'
p6603
F0.0
tp6604
a(S'Phe193_Ala200'
p6605
F0.0
tp6606
a(S'Phe193_Ile201'
p6607
F0.0
tp6608
a(S'Phe193_Ser203'
p6609
F0.0
tp6610
a(S'Phe193_Ser204'
p6611
F0.0
tp6612
a(S'Phe193_Ser207'
p6613
F0.0
tp6614
a(S'Phe193_Phe289'
p6615
F0.0
tp6616
a(S'Phe193_Phe290'
p6617
F0.0
tp6618
a(S'Phe193_Val292'
p6619
F0.0
tp6620
a(S'Phe193_Asn293'
p6621
F0.0
tp6622
a(S'Phe193_His296'
p6623
F0.0
tp6624
a(S'Phe193_Val297'
p6625
F0.0
tp6626
a(S'Phe193_Lys305'
p6627
F0.0
tp6628
a(S'Phe193_Tyr308'
p6629
F0.0
tp6630
a(S'Phe193_Ile309'
p6631
F0.0
tp6632
a(S'Phe193_Asn312'
p6633
F0.0
tp6634
a(S'Phe193_Tyr316'
p6635
F0.0
tp6636
a(S'Phe194_Thr195'
p6637
F0.004540167028436407
tp6638
a(S'Phe194_Asn196'
p6639
F0.0
tp6640
a(S'Phe194_Gln197'
p6641
F0.0
tp6642
a(S'Phe194_Ala198'
p6643
F0.0
tp6644
a(S'Phe194_Tyr199'
p6645
F0.0006667444982781135
tp6646
a(S'Phe194_Ala200'
p6647
F0.0007478866930186269
tp6648
a(S'Phe194_Asn293'
p6649
F0.0
tp6650
a(S'Phe194_His296'
p6651
F0.0
tp6652
a(S'Phe194_Val297'
p6653
F0.0009334422975893589
tp6654
a(S'Phe194_Asp300'
p6655
F0.0
tp6656
a(S'Phe194_Asn301'
p6657
F0.0
tp6658
a(S'Phe194_Ile303'
p6659
F0.0
tp6660
a(S'Phe194_Lys305'
p6661
F0.0
tp6662
a(S'Phe194_Tyr308'
p6663
F0.0
tp6664
a(S'Thr195_Asn196'
p6665
F0.0006350318294276854
tp6666
a(S'Thr195_Gln197'
p6667
F0.0
tp6668
a(S'Thr195_Ala198'
p6669
F0.0
tp6670
a(S'Thr195_Tyr199'
p6671
F0.0003919511195417197
tp6672
a(S'Thr195_Ala200'
p6673
F0.0
tp6674
a(S'Thr195_Ile201'
p6675
F0.0
tp6676
a(S'Thr195_Ala202'
p6677
F0.000742324139856131
tp6678
a(S'Thr195_Ser203'
p6679
F0.0009911066866296265
tp6680
a(S'Thr195_Ser204'
p6681
F0.0010141501638364588
tp6682
a(S'Thr195_Phe289'
p6683
F0.0
tp6684
a(S'Thr195_Phe290'
p6685
F0.002699211639759485
tp6686
a(S'Thr195_Val292'
p6687
F0.0
tp6688
a(S'Thr195_Asn293'
p6689
F0.0007113186984275651
tp6690
a(S'Thr195_Ile294'
p6691
F0.00220054559323081
tp6692
a(S'Thr195_His296'
p6693
F0.0
tp6694
a(S'Thr195_Val297'
p6695
F0.0
tp6696
a(S'Thr195_Ile298'
p6697
F0.0
tp6698
a(S'Thr195_Asp300'
p6699
F0.0
tp6700
a(S'Thr195_Lys305'
p6701
F0.0
tp6702
a(S'Thr195_Tyr308'
p6703
F0.0
tp6704
a(S'Asn196_Gln197'
p6705
F0.0
tp6706
a(S'Asn196_Ala198'
p6707
F0.0
tp6708
a(S'Asn196_Tyr199'
p6709
F0.0
tp6710
a(S'Asn196_Ala200'
p6711
F0.0
tp6712
a(S'Asn196_Ile201'
p6713
F0.0
tp6714
a(S'Asn196_Ala202'
p6715
F0.0
tp6716
a(S'Asn196_Ser203'
p6717
F4.36587823885156e-05
tp6718
a(S'Asn196_Ser204'
p6719
F0.0019950900946928813
tp6720
a(S'Asn196_Asn293'
p6721
F0.0
tp6722
a(S'Asn196_Ile294'
p6723
F0.0
tp6724
a(S'Asn196_His296'
p6725
F0.0
tp6726
a(S'Asn196_Val297'
p6727
F0.0
tp6728
a(S'Asn196_Ile298'
p6729
F0.0
tp6730
a(S'Asn196_Tyr308'
p6731
F0.0
tp6732
a(S'Gln197_Ala198'
p6733
F4.039063332273418e-05
tp6734
a(S'Gln197_Tyr199'
p6735
F0.0
tp6736
a(S'Gln197_Ala200'
p6737
F0.0
tp6738
a(S'Gln197_Ile201'
p6739
F0.0
tp6740
a(S'Gln197_Ala202'
p6741
F0.0
tp6742
a(S'Gln197_Ser203'
p6743
F0.0006112181358241469
tp6744
a(S'Gln197_Ser204'
p6745
F0.0010019075929544223
tp6746
a(S'Gln197_Ile205'
p6747
F0.0
tp6748
a(S'Gln197_Asn293'
p6749
F0.0
tp6750
a(S'Gln197_Ile294'
p6751
F0.0
tp6752
a(S'Gln197_Val295'
p6753
F0.0
tp6754
a(S'Gln197_His296'
p6755
F0.0
tp6756
a(S'Gln197_Val297'
p6757
F2.9596669961877834e-05
tp6758
a(S'Gln197_Ile298'
p6759
F0.0
tp6760
a(S'Gln197_Gln299'
p6761
F0.0
tp6762
a(S'Gln197_Asp300'
p6763
F0.0
tp6764
a(S'Ala198_Tyr199'
p6765
F0.0
tp6766
a(S'Ala198_Ala200'
p6767
F0.0
tp6768
a(S'Ala198_Ile201'
p6769
F0.0
tp6770
a(S'Ala198_Ala202'
p6771
F0.0
tp6772
a(S'Ala198_Ser203'
p6773
F0.0
tp6774
a(S'Ala198_Ser204'
p6775
F0.0
tp6776
a(S'Ala198_Ile205'
p6777
F0.0
tp6778
a(S'Ala198_Val206'
p6779
F0.0
tp6780
a(S'Ala198_Asn293'
p6781
F0.0
tp6782
a(S'Ala198_Ile294'
p6783
F0.0
tp6784
a(S'Ala198_His296'
p6785
F0.0
tp6786
a(S'Ala198_Val297'
p6787
F0.0
tp6788
a(S'Ala198_Ile298'
p6789
F0.0009261421500898213
tp6790
a(S'Tyr199_Ala200'
p6791
F0.0
tp6792
a(S'Tyr199_Ile201'
p6793
F0.0
tp6794
a(S'Tyr199_Ala202'
p6795
F0.0
tp6796
a(S'Tyr199_Ser203'
p6797
F0.0
tp6798
a(S'Tyr199_Ser204'
p6799
F0.0
tp6800
a(S'Tyr199_Ile205'
p6801
F0.0
tp6802
a(S'Tyr199_Val206'
p6803
F0.0
tp6804
a(S'Tyr199_Ser207'
p6805
F0.0
tp6806
a(S'Tyr199_Phe208'
p6807
F0.0
tp6808
a(S'Tyr199_Tyr209'
p6809
F0.0006264820211221055
tp6810
a(S'Tyr199_Phe289'
p6811
F0.0007611977535002296
tp6812
a(S'Tyr199_Phe290'
p6813
F0.0
tp6814
a(S'Tyr199_Asn293'
p6815
F0.0
tp6816
a(S'Tyr199_Ile294'
p6817
F0.0
tp6818
a(S'Tyr199_Val297'
p6819
F0.0
tp6820
a(S'Tyr199_Tyr308'
p6821
F0.0
tp6822
a(S'Ala200_Ile201'
p6823
F0.0
tp6824
a(S'Ala200_Ala202'
p6825
F0.0
tp6826
a(S'Ala200_Ser203'
p6827
F0.0
tp6828
a(S'Ala200_Ser204'
p6829
F0.0
tp6830
a(S'Ala200_Ile205'
p6831
F0.0
tp6832
a(S'Ala200_Val206'
p6833
F0.0
tp6834
a(S'Ala200_Ser207'
p6835
F0.0
tp6836
a(S'Ala200_Phe208'
p6837
F0.0
tp6838
a(S'Ala200_Tyr209'
p6839
F0.0005000583737085851
tp6840
a(S'Ala200_Phe289'
p6841
F0.0
tp6842
a(S'Ala200_Phe290'
p6843
F0.0
tp6844
a(S'Ala200_Ile291'
p6845
F0.0
tp6846
a(S'Ala200_Val292'
p6847
F0.0
tp6848
a(S'Ala200_Asn293'
p6849
F0.0007779594060754499
tp6850
a(S'Ala200_Ile294'
p6851
F0.0
tp6852
a(S'Ala200_Val295'
p6853
F0.0
tp6854
a(S'Ala200_His296'
p6855
F0.0
tp6856
a(S'Ala200_Val297'
p6857
F0.0
tp6858
a(S'Ala200_Ile298'
p6859
F0.0
tp6860
a(S'Ala200_Tyr308'
p6861
F0.0006594561305595188
tp6862
a(S'Ile201_Ala202'
p6863
F0.0
tp6864
a(S'Ile201_Ser203'
p6865
F0.0
tp6866
a(S'Ile201_Ser204'
p6867
F0.0
tp6868
a(S'Ile201_Ile205'
p6869
F0.0
tp6870
a(S'Ile201_Val206'
p6871
F0.0
tp6872
a(S'Ile201_Ser207'
p6873
F0.0
tp6874
a(S'Ile201_Phe208'
p6875
F0.0
tp6876
a(S'Ile201_Tyr209'
p6877
F0.0
tp6878
a(S'Ile201_Val210'
p6879
F0.0
tp6880
a(S'Ile201_Pro211'
p6881
F0.0
tp6882
a(S'Ile201_Phe290'
p6883
F0.001964400370235113
tp6884
a(S'Ile201_Ile291'
p6885
F0.0
tp6886
a(S'Ile201_Val292'
p6887
F0.004420487400891005
tp6888
a(S'Ile201_Asn293'
p6889
F0.0
tp6890
a(S'Ile201_Ile294'
p6891
F0.0005485769618748125
tp6892
a(S'Ile201_Val295'
p6893
F0.0008629282394542218
tp6894
a(S'Ile201_His296'
p6895
F0.0
tp6896
a(S'Ile201_Val297'
p6897
F0.0
tp6898
a(S'Ile201_Ile298'
p6899
F0.0009459016644763761
tp6900
a(S'Ile201_Gln299'
p6901
F0.0002532499430440826
tp6902
a(S'Ile201_Tyr308'
p6903
F0.0008751021539900239
tp6904
a(S'Ala202_Ser203'
p6905
F0.0
tp6906
a(S'Ala202_Ser204'
p6907
F0.0025354562929965673
tp6908
a(S'Ala202_Ile205'
p6909
F0.0
tp6910
a(S'Ala202_Val206'
p6911
F0.0
tp6912
a(S'Ala202_Ser207'
p6913
F0.0
tp6914
a(S'Ala202_Phe208'
p6915
F0.0
tp6916
a(S'Ala202_Tyr209'
p6917
F0.0
tp6918
a(S'Ala202_Val210'
p6919
F0.0
tp6920
a(S'Ala202_Pro211'
p6921
F4.7213256713306195e-06
tp6922
a(S'Ala202_Phe290'
p6923
F0.0
tp6924
a(S'Ala202_Asn293'
p6925
F0.0
tp6926
a(S'Ala202_Ile294'
p6927
F0.0
tp6928
a(S'Ala202_Val297'
p6929
F0.0008889926643708178
tp6930
a(S'Ser203_Ser204'
p6931
F0.0
tp6932
a(S'Ser203_Ile205'
p6933
F0.0
tp6934
a(S'Ser203_Val206'
p6935
F0.0
tp6936
a(S'Ser203_Ser207'
p6937
F0.001111344642300253
tp6938
a(S'Ser203_Phe208'
p6939
F0.0
tp6940
a(S'Ser203_Tyr209'
p6941
F0.0
tp6942
a(S'Ser203_Val210'
p6943
F0.0
tp6944
a(S'Ser203_Pro211'
p6945
F0.0
tp6946
a(S'Ser203_Phe289'
p6947
F0.00021793137782631912
tp6948
a(S'Ser203_Phe290'
p6949
F0.0
tp6950
a(S'Ser203_Asn293'
p6951
F0.0
tp6952
a(S'Ser203_Ile294'
p6953
F0.0
tp6954
a(S'Ser203_Val297'
p6955
F0.0
tp6956
a(S'Ser203_Tyr308'
p6957
F0.0
tp6958
a(S'Ser204_Ile205'
p6959
F0.0
tp6960
a(S'Ser204_Val206'
p6961
F0.00040009340883880273
tp6962
a(S'Ser204_Ser207'
p6963
F0.0
tp6964
a(S'Ser204_Phe208'
p6965
F0.0
tp6966
a(S'Ser204_Tyr209'
p6967
F0.0
tp6968
a(S'Ser204_Val210'
p6969
F0.0
tp6970
a(S'Ser204_Pro211'
p6971
F0.0
tp6972
a(S'Ser204_Leu212'
p6973
F0.0
tp6974
a(S'Ser204_Val213'
p6975
F0.0
tp6976
a(S'Ser204_Phe282'
p6977
F0.0
tp6978
a(S'Ser204_Trp286'
p6979
F0.0
tp6980
a(S'Ser204_Leu287'
p6981
F0.0
tp6982
a(S'Ser204_Pro288'
p6983
F0.0
tp6984
a(S'Ser204_Phe289'
p6985
F0.0
tp6986
a(S'Ser204_Phe290'
p6987
F0.0008937271053954327
tp6988
a(S'Ser204_Ile291'
p6989
F0.0
tp6990
a(S'Ser204_Val292'
p6991
F0.0
tp6992
a(S'Ser204_Asn293'
p6993
F0.0
tp6994
a(S'Ser204_Ile294'
p6995
F0.0
tp6996
a(S'Ser204_Val295'
p6997
F0.0
tp6998
a(S'Ser204_His296'
p6999
F0.0
tp7000
a(S'Ser204_Val297'
p7001
F0.0
tp7002
a(S'Ser204_Tyr308'
p7003
F3.328620364214088e-06
tp7004
a(S'Ile205_Val206'
p7005
F0.0
tp7006
a(S'Ile205_Ser207'
p7007
F0.0
tp7008
a(S'Ile205_Phe208'
p7009
F1.591128450531217e-06
tp7010
a(S'Ile205_Tyr209'
p7011
F0.0
tp7012
a(S'Ile205_Val210'
p7013
F0.0
tp7014
a(S'Ile205_Pro211'
p7015
F0.0015730065353373914
tp7016
a(S'Ile205_Leu212'
p7017
F0.0
tp7018
a(S'Ile205_Val213'
p7019
F0.0
tp7020
a(S'Ile205_Ile214'
p7021
F0.0
tp7022
a(S'Ile205_Phe282'
p7023
F0.0014508106532598196
tp7024
a(S'Ile205_Phe290'
p7025
F0.0
tp7026
a(S'Ile205_Ile291'
p7027
F0.0
tp7028
a(S'Ile205_Asn293'
p7029
F0.0
tp7030
a(S'Ile205_Ile294'
p7031
F0.0006667444982781135
tp7032
a(S'Ile205_Val297'
p7033
F0.0
tp7034
a(S'Val206_Ser207'
p7035
F0.0
tp7036
a(S'Val206_Phe208'
p7037
F0.0
tp7038
a(S'Val206_Tyr209'
p7039
F0.00015877997037119497
tp7040
a(S'Val206_Val210'
p7041
F0.0
tp7042
a(S'Val206_Pro211'
p7043
F0.0
tp7044
a(S'Val206_Leu212'
p7045
F0.0011371739718282789
tp7046
a(S'Val206_Val213'
p7047
F0.0
tp7048
a(S'Val206_Ile214'
p7049
F0.0
tp7050
a(S'Val206_Phe282'
p7051
F0.0
tp7052
a(S'Val206_Phe290'
p7053
F0.0
tp7054
a(S'Val206_Asn293'
p7055
F0.0
tp7056
a(S'Val206_Ile294'
p7057
F0.0
tp7058
a(S'Ser207_Phe208'
p7059
F0.0019897312238269203
tp7060
a(S'Ser207_Tyr209'
p7061
F0.0
tp7062
a(S'Ser207_Val210'
p7063
F0.0
tp7064
a(S'Ser207_Pro211'
p7065
F0.0
tp7066
a(S'Ser207_Leu212'
p7067
F0.0008001401050788833
tp7068
a(S'Ser207_Val213'
p7069
F0.0
tp7070
a(S'Ser207_Ile214'
p7071
F0.0
tp7072
a(S'Ser207_Met215'
p7073
F0.0
tp7074
a(S'Ser207_Phe282'
p7075
F0.0
tp7076
a(S'Ser207_Trp286'
p7077
F0.0006546600859736317
tp7078
a(S'Ser207_Leu287'
p7079
F0.0
tp7080
a(S'Ser207_Phe289'
p7081
F0.0
tp7082
a(S'Ser207_Phe290'
p7083
F0.0
tp7084
a(S'Ser207_Asn293'
p7085
F0.0
tp7086
a(S'Ser207_Ile294'
p7087
F0.0
tp7088
a(S'Ser207_Asn312'
p7089
F0.0006112181358241469
tp7090
a(S'Ser207_Asn318'
p7091
F0.0
tp7092
a(S'Phe208_Tyr209'
p7093
F0.0
tp7094
a(S'Phe208_Val210'
p7095
F0.0
tp7096
a(S'Phe208_Pro211'
p7097
F0.0
tp7098
a(S'Phe208_Leu212'
p7099
F0.0
tp7100
a(S'Phe208_Val213'
p7101
F0.0
tp7102
a(S'Phe208_Ile214'
p7103
F0.0
tp7104
a(S'Phe208_Met215'
p7105
F0.00034299728065933014
tp7106
a(S'Phe208_Val216'
p7107
F0.0
tp7108
a(S'Phe208_Met279'
p7109
F0.0007500875605628776
tp7110
a(S'Phe208_Gly280'
p7111
F0.0
tp7112
a(S'Phe208_Thr281'
p7113
F0.0
tp7114
a(S'Phe208_Phe282'
p7115
F0.0
tp7116
a(S'Phe208_Thr283'
p7117
F0.0
tp7118
a(S'Phe208_Leu284'
p7119
F0.0
tp7120
a(S'Phe208_Cys285'
p7121
F0.0
tp7122
a(S'Phe208_Trp286'
p7123
F0.000966779522503264
tp7124
a(S'Phe208_Leu287'
p7125
F0.0
tp7126
a(S'Phe208_Pro288'
p7127
F0.0
tp7128
a(S'Phe208_Phe289'
p7129
F0.0
tp7130
a(S'Phe208_Phe290'
p7131
F0.0
tp7132
a(S'Phe208_Ile291'
p7133
F0.0034188267233610384
tp7134
a(S'Phe208_Val292'
p7135
F0.0004285514202185633
tp7136
a(S'Phe208_Asn293'
p7137
F0.0004445222805993796
tp7138
a(S'Phe208_Ile294'
p7139
F0.0
tp7140
a(S'Phe208_Gly315'
p7141
F0.0
tp7142
a(S'Phe208_Asn318'
p7143
F0.0
tp7144
a(S'Tyr209_Val210'
p7145
F0.0
tp7146
a(S'Tyr209_Pro211'
p7147
F0.0
tp7148
a(S'Tyr209_Leu212'
p7149
F0.0
tp7150
a(S'Tyr209_Val213'
p7151
F0.0005834354932866858
tp7152
a(S'Tyr209_Ile214'
p7153
F0.003369993439536567
tp7154
a(S'Tyr209_Met215'
p7155
F0.0012037604427447412
tp7156
a(S'Tyr209_Val216'
p7157
F0.0
tp7158
a(S'Tyr209_Phe217'
p7159
F0.0
tp7160
a(S'Tyr209_Met279'
p7161
F0.0
tp7162
a(S'Tyr209_Phe282'
p7163
F0.0
tp7164
a(S'Tyr209_Thr283'
p7165
F0.0
tp7166
a(S'Tyr209_Trp286'
p7167
F0.0
tp7168
a(S'Tyr209_Leu287'
p7169
F0.0
tp7170
a(S'Tyr209_Pro288'
p7171
F0.0
tp7172
a(S'Tyr209_Phe289'
p7173
F0.0
tp7174
a(S'Tyr209_Phe290'
p7175
F0.0
tp7176
a(S'Tyr209_Ile291'
p7177
F0.0
tp7178
a(S'Tyr209_Val292'
p7179
F0.0
tp7180
a(S'Tyr209_Asn293'
p7181
F0.0
tp7182
a(S'Tyr209_Ile294'
p7183
F0.0
tp7184
a(S'Tyr209_Val295'
p7185
F0.0
tp7186
a(S'Tyr209_His296'
p7187
F0.0
tp7188
a(S'Tyr209_Val297'
p7189
F0.0
tp7190
a(S'Tyr209_Ile298'
p7191
F0.0
tp7192
a(S'Val210_Pro211'
p7193
F0.0
tp7194
a(S'Val210_Leu212'
p7195
F0.0
tp7196
a(S'Val210_Val213'
p7197
F0.0
tp7198
a(S'Val210_Ile214'
p7199
F0.0
tp7200
a(S'Val210_Met215'
p7201
F0.000779276569901789
tp7202
a(S'Val210_Val216'
p7203
F1.5289403475762175e-05
tp7204
a(S'Val210_Phe217'
p7205
F0.0
tp7206
a(S'Val210_Val218'
p7207
F0.003041976015139269
tp7208
a(S'Val210_Met279'
p7209
F0.000963075386401719
tp7210
a(S'Val210_Phe282'
p7211
F0.0
tp7212
a(S'Val210_Leu287'
p7213
F0.0
tp7214
a(S'Val210_Phe290'
p7215
F0.0
tp7216
a(S'Pro211_Leu212'
p7217
F0.0
tp7218
a(S'Pro211_Val213'
p7219
F0.0
tp7220
a(S'Pro211_Ile214'
p7221
F0.0
tp7222
a(S'Pro211_Met215'
p7223
F0.0
tp7224
a(S'Pro211_Val216'
p7225
F0.0
tp7226
a(S'Pro211_Phe217'
p7227
F0.0
tp7228
a(S'Pro211_Val218'
p7229
F0.0
tp7230
a(S'Pro211_Tyr219'
p7231
F0.002
tp7232
a(S'Pro211_Met279'
p7233
F0.0
tp7234
a(S'Pro211_Phe282'
p7235
F0.0
tp7236
a(S'Pro211_Thr283'
p7237
F0.00028485553456349263
tp7238
a(S'Pro211_Trp286'
p7239
F0.0
tp7240
a(S'Pro211_Leu287'
p7241
F0.0
tp7242
a(S'Pro211_Phe290'
p7243
F0.0
tp7244
a(S'Pro211_Tyr326'
p7245
F0.0
tp7246
a(S'Leu212_Val213'
p7247
F0.0
tp7248
a(S'Leu212_Ile214'
p7249
F0.0
tp7250
a(S'Leu212_Met215'
p7251
F0.0
tp7252
a(S'Leu212_Val216'
p7253
F0.0
tp7254
a(S'Leu212_Phe217'
p7255
F9.317772324352337e-06
tp7256
a(S'Leu212_Val218'
p7257
F0.0002500875810124535
tp7258
a(S'Leu212_Tyr219'
p7259
F0.0
tp7260
a(S'Leu212_Ser220'
p7261
F0.0
tp7262
a(S'Leu212_Ile278'
p7263
F0.0
tp7264
a(S'Leu212_Met279'
p7265
F0.0
tp7266
a(S'Leu212_Gly280'
p7267
F0.0004445222805993796
tp7268
a(S'Leu212_Thr281'
p7269
F0.0007045001996530517
tp7270
a(S'Leu212_Phe282'
p7271
F0.0
tp7272
a(S'Leu212_Thr283'
p7273
F1.9351539478550165e-05
tp7274
a(S'Leu212_Leu284'
p7275
F1.183872832168813e-06
tp7276
a(S'Leu212_Cys285'
p7277
F0.0013473079663402488
tp7278
a(S'Leu212_Trp286'
p7279
F0.0
tp7280
a(S'Leu212_Leu287'
p7281
F0.00022866485377288676
tp7282
a(S'Leu212_Pro288'
p7283
F0.0
tp7284
a(S'Leu212_Phe290'
p7285
F0.0
tp7286
a(S'Leu212_Ile291'
p7287
F0.0
tp7288
a(S'Leu212_Ile294'
p7289
F0.0
tp7290
a(S'Val213_Ile214'
p7291
F0.0
tp7292
a(S'Val213_Met215'
p7293
F0.0007780113180544751
tp7294
a(S'Val213_Val216'
p7295
F0.0
tp7296
a(S'Val213_Phe217'
p7297
F0.0
tp7298
a(S'Val213_Val218'
p7299
F1.4112500454921188e-05
tp7300
a(S'Val213_Tyr219'
p7301
F0.0
tp7302
a(S'Val213_Ser220'
p7303
F0.0006613179830228497
tp7304
a(S'Val213_Arg221'
p7305
F0.0
tp7306
a(S'Val213_Met279'
p7307
F0.0
tp7308
a(S'Val213_Phe282'
p7309
F0.0
tp7310
a(S'Val213_Thr283'
p7311
F0.0
tp7312
a(S'Val213_Leu287'
p7313
F0.0
tp7314
a(S'Ile214_Met215'
p7315
F0.0
tp7316
a(S'Ile214_Val216'
p7317
F0.0
tp7318
a(S'Ile214_Phe217'
p7319
F0.0006667444982781135
tp7320
a(S'Ile214_Val218'
p7321
F0.0
tp7322
a(S'Ile214_Tyr219'
p7323
F0.0
tp7324
a(S'Ile214_Ser220'
p7325
F0.0
tp7326
a(S'Ile214_Arg221'
p7327
F0.0008889926643708178
tp7328
a(S'Ile214_Val222'
p7329
F0.0008692498715866326
tp7330
a(S'Ile214_Met279'
p7331
F0.0
tp7332
a(S'Ile214_Phe282'
p7333
F0.0014253327689882358
tp7334
a(S'Met215_Val216'
p7335
F0.0
tp7336
a(S'Met215_Phe217'
p7337
F0.0
tp7338
a(S'Met215_Val218'
p7339
F0.0
tp7340
a(S'Met215_Tyr219'
p7341
F0.0
tp7342
a(S'Met215_Ser220'
p7343
F0.0
tp7344
a(S'Met215_Arg221'
p7345
F0.0
tp7346
a(S'Met215_Val222'
p7347
F0.0
tp7348
a(S'Met215_Phe223'
p7349
F0.0
tp7350
a(S'Met215_Thr274'
p7351
F0.0
tp7352
a(S'Met215_Leu275'
p7353
F0.0
tp7354
a(S'Met215_Gly276'
p7355
F0.0
tp7356
a(S'Met215_Ile277'
p7357
F0.001654219911127598
tp7358
a(S'Met215_Ile278'
p7359
F0.0
tp7360
a(S'Met215_Met279'
p7361
F0.0
tp7362
a(S'Met215_Gly280'
p7363
F0.0
tp7364
a(S'Met215_Thr281'
p7365
F0.0
tp7366
a(S'Met215_Phe282'
p7367
F0.0
tp7368
a(S'Met215_Thr283'
p7369
F0.0
tp7370
a(S'Met215_Leu284'
p7371
F0.0
tp7372
a(S'Met215_Trp286'
p7373
F0.0
tp7374
a(S'Met215_Asn318'
p7375
F0.0012573630222668163
tp7376
a(S'Met215_Asn322'
p7377
F0.0
tp7378
a(S'Met215_Ile325'
p7379
F0.0
tp7380
a(S'Met215_Tyr326'
p7381
F0.0
tp7382
a(S'Val216_Phe217'
p7383
F0.0
tp7384
a(S'Val216_Val218'
p7385
F0.0
tp7386
a(S'Val216_Tyr219'
p7387
F0.0
tp7388
a(S'Val216_Ser220'
p7389
F0.0
tp7390
a(S'Val216_Arg221'
p7391
F0.0
tp7392
a(S'Val216_Val222'
p7393
F0.0
tp7394
a(S'Val216_Phe223'
p7395
F0.0
tp7396
a(S'Val216_Gln224'
p7397
F0.0
tp7398
a(S'Val216_Leu275'
p7399
F0.0
tp7400
a(S'Val216_Ile278'
p7401
F0.0006465778626900063
tp7402
a(S'Val216_Met279'
p7403
F0.0
tp7404
a(S'Val216_Gly280'
p7405
F0.0
tp7406
a(S'Val216_Phe282'
p7407
F0.0
tp7408
a(S'Val216_Thr283'
p7409
F0.0
tp7410
a(S'Val216_Leu287'
p7411
F7.0204408470449616e-06
tp7412
a(S'Phe217_Val218'
p7413
F0.0
tp7414
a(S'Phe217_Tyr219'
p7415
F0.0
tp7416
a(S'Phe217_Ser220'
p7417
F0.0003267811058562726
tp7418
a(S'Phe217_Arg221'
p7419
F0.0
tp7420
a(S'Phe217_Val222'
p7421
F0.0
tp7422
a(S'Phe217_Phe223'
p7423
F0.0001920224155040966
tp7424
a(S'Phe217_Gln224'
p7425
F0.0
tp7426
a(S'Phe217_Glu225'
p7427
F0.0
tp7428
a(S'Phe217_Leu275'
p7429
F0.00039469354799665624
tp7430
a(S'Phe217_Met279'
p7431
F0.0
tp7432
a(S'Val218_Tyr219'
p7433
F0.0
tp7434
a(S'Val218_Ser220'
p7435
F0.0
tp7436
a(S'Val218_Arg221'
p7437
F0.0004943014498735216
tp7438
a(S'Val218_Val222'
p7439
F0.0
tp7440
a(S'Val218_Phe223'
p7441
F0.0
tp7442
a(S'Val218_Gln224'
p7443
F0.0
tp7444
a(S'Val218_Glu225'
p7445
F0.0
tp7446
a(S'Val218_Ala226'
p7447
F0.0
tp7448
a(S'Val218_Leu275'
p7449
F0.0013329037111122577
tp7450
a(S'Val218_Ile278'
p7451
F0.0
tp7452
a(S'Val218_Met279'
p7453
F0.0
tp7454
a(S'Val218_Tyr326'
p7455
F0.0004843230542223532
tp7456
a(S'Tyr219_Ser220'
p7457
F0.0
tp7458
a(S'Tyr219_Arg221'
p7459
F0.0
tp7460
a(S'Tyr219_Val222'
p7461
F0.0
tp7462
a(S'Tyr219_Phe223'
p7463
F0.0
tp7464
a(S'Tyr219_Gln224'
p7465
F0.0
tp7466
a(S'Tyr219_Glu225'
p7467
F0.0
tp7468
a(S'Tyr219_Ala226'
p7469
F0.0
tp7470
a(S'Tyr219_Ala271'
p7471
F0.0
tp7472
a(S'Tyr219_Leu272'
p7473
F0.0003333917104495347
tp7474
a(S'Tyr219_Thr274'
p7475
F0.0009299691731918432
tp7476
a(S'Tyr219_Leu275'
p7477
F0.0
tp7478
a(S'Tyr219_Gly276'
p7479
F0.0
tp7480
a(S'Tyr219_Ile277'
p7481
F0.0
tp7482
a(S'Tyr219_Ile278'
p7483
F0.0
tp7484
a(S'Tyr219_Met279'
p7485
F0.0
tp7486
a(S'Tyr219_Gly280'
p7487
F0.0
tp7488
a(S'Tyr219_Thr281'
p7489
F0.0
tp7490
a(S'Tyr219_Phe282'
p7491
F0.0004981631799506578
tp7492
a(S'Tyr219_Thr283'
p7493
F0.0
tp7494
a(S'Tyr219_Asn322'
p7495
F0.0013246526965279828
tp7496
a(S'Tyr219_Ile325'
p7497
F0.0012664847801841753
tp7498
a(S'Tyr219_Tyr326'
p7499
F0.0005315763809747711
tp7500
a(S'Ser220_Arg221'
p7501
F0.0
tp7502
a(S'Ser220_Val222'
p7503
F0.0024178514075073295
tp7504
a(S'Ser220_Phe223'
p7505
F0.0
tp7506
a(S'Ser220_Gln224'
p7507
F0.0
tp7508
a(S'Ser220_Glu225'
p7509
F0.0
tp7510
a(S'Ser220_Ala226'
p7511
F0.0
tp7512
a(S'Ser220_Leu272'
p7513
F0.0
tp7514
a(S'Ser220_Leu275'
p7515
F0.0
tp7516
a(S'Ser220_Gly276'
p7517
F0.0009668924046937731
tp7518
a(S'Ser220_Met279'
p7519
F0.0
tp7520
a(S'Arg221_Val222'
p7521
F0.0
tp7522
a(S'Arg221_Phe223'
p7523
F0.0
tp7524
a(S'Arg221_Gln224'
p7525
F0.0
tp7526
a(S'Arg221_Glu225'
p7527
F0.0
tp7528
a(S'Arg221_Ala226'
p7529
F0.0
tp7530
a(S'Arg221_Leu275'
p7531
F0.0
tp7532
a(S'Val222_Phe223'
p7533
F0.00016247570699122913
tp7534
a(S'Val222_Gln224'
p7535
F0.0
tp7536
a(S'Val222_Glu225'
p7537
F0.0
tp7538
a(S'Val222_Ala226'
p7539
F0.00039824706334277044
tp7540
a(S'Val222_Glu268'
p7541
F0.000984611061410702
tp7542
a(S'Val222_Ala271'
p7543
F6.735870580686509e-05
tp7544
a(S'Val222_Leu272'
p7545
F0.0
tp7546
a(S'Val222_Lys273'
p7547
F0.0003509615788683687
tp7548
a(S'Val222_Thr274'
p7549
F0.0
tp7550
a(S'Val222_Leu275'
p7551
F0.0009877761187217732
tp7552
a(S'Val222_Gly276'
p7553
F5.684355742097745e-06
tp7554
a(S'Val222_Ile278'
p7555
F0.0
tp7556
a(S'Val222_Met279'
p7557
F0.0
tp7558
a(S'Phe223_Gln224'
p7559
F0.0
tp7560
a(S'Phe223_Glu225'
p7561
F0.0
tp7562
a(S'Phe223_Ala226'
p7563
F0.0
tp7564
a(S'Phe223_Glu268'
p7565
F0.0
tp7566
a(S'Phe223_His269'
p7567
F0.0014157028241376676
tp7568
a(S'Phe223_Ala271'
p7569
F0.0
tp7570
a(S'Phe223_Leu272'
p7571
F0.0
tp7572
a(S'Phe223_Lys273'
p7573
F0.0011372293500482179
tp7574
a(S'Phe223_Thr274'
p7575
F0.0
tp7576
a(S'Phe223_Leu275'
p7577
F0.0
tp7578
a(S'Phe223_Gly276'
p7579
F0.0
tp7580
a(S'Phe223_Met279'
p7581
F0.0
tp7582
a(S'Gln224_Glu225'
p7583
F0.0
tp7584
a(S'Gln224_Ala226'
p7585
F0.0
tp7586
a(S'Gln224_Glu268'
p7587
F0.0
tp7588
a(S'Gln224_Leu272'
p7589
F0.0
tp7590
a(S'Gln224_Leu275'
p7591
F0.0019231891736567538
tp7592
a(S'Glu225_Ala226'
p7593
F0.0
tp7594
a(S'Glu225_Glu268'
p7595
F0.0006624180900880623
tp7596
a(S'Glu225_Leu275'
p7597
F1.28401713997044e-06
tp7598
a(S'Ala226_Lys267'
p7599
F0.0
tp7600
a(S'Ala226_Glu268'
p7601
F0.0
tp7602
a(S'Ala226_His269'
p7603
F0.0
tp7604
a(S'Ala226_Ala271'
p7605
F0.0
tp7606
a(S'Ala226_Leu272'
p7607
F0.0
tp7608
a(S'Ala226_Leu275'
p7609
F0.0
tp7610
a(S'Lys267_Glu268'
p7611
F0.0
tp7612
a(S'Lys267_His269'
p7613
F0.00026674451191033695
tp7614
a(S'Lys267_Lys270'
p7615
F0.0
tp7616
a(S'Lys267_Ala271'
p7617
F0.0
tp7618
a(S'Lys267_Leu272'
p7619
F0.0011636048861394803
tp7620
a(S'Lys267_Lys273'
p7621
F0.001336248738096962
tp7622
a(S'Lys267_Thr274'
p7623
F0.0
tp7624
a(S'Lys267_Leu275'
p7625
F5.944219217000225e-06
tp7626
a(S'Glu268_His269'
p7627
F0.0
tp7628
a(S'Glu268_Lys270'
p7629
F0.00203144524447685
tp7630
a(S'Glu268_Ala271'
p7631
F0.0
tp7632
a(S'Glu268_Leu272'
p7633
F0.0
tp7634
a(S'Glu268_Lys273'
p7635
F0.001112024697777982
tp7636
a(S'Glu268_Thr274'
p7637
F0.0009961170735818432
tp7638
a(S'Glu268_Leu275'
p7639
F0.0010038038176157238
tp7640
a(S'Glu268_Gly276'
p7641
F0.0018298912589498123
tp7642
a(S'His269_Lys270'
p7643
F0.0
tp7644
a(S'His269_Ala271'
p7645
F0.0009899114744843427
tp7646
a(S'His269_Leu272'
p7647
F0.0
tp7648
a(S'His269_Lys273'
p7649
F0.0004953079460384227
tp7650
a(S'His269_Thr274'
p7651
F0.00220894032056869
tp7652
a(S'His269_Leu275'
p7653
F0.0007731594295769921
tp7654
a(S'His269_Gly276'
p7655
F0.0
tp7656
a(S'His269_Ile277'
p7657
F0.0
tp7658
a(S'Lys270_Ala271'
p7659
F0.0
tp7660
a(S'Lys270_Leu272'
p7661
F0.0010656761085432475
tp7662
a(S'Lys270_Lys273'
p7663
F0.0012374891182281849
tp7664
a(S'Lys270_Thr274'
p7665
F0.0
tp7666
a(S'Lys270_Leu275'
p7667
F0.0015896497307077225
tp7668
a(S'Lys270_Gly276'
p7669
F0.000570292259147889
tp7670
a(S'Lys270_Ile277'
p7671
F0.0020547850152594135
tp7672
a(S'Lys270_Ile278'
p7673
F0.0
tp7674
a(S'Lys270_Arg328'
p7675
F0.00034775262379384514
tp7676
a(S'Lys270_Arg333'
p7677
F0.0
tp7678
a(S'Ala271_Leu272'
p7679
F0.0
tp7680
a(S'Ala271_Lys273'
p7681
F0.0008975774269511127
tp7682
a(S'Ala271_Thr274'
p7683
F0.0
tp7684
a(S'Ala271_Leu275'
p7685
F0.0
tp7686
a(S'Ala271_Gly276'
p7687
F0.001450088411428222
tp7688
a(S'Ala271_Ile277'
p7689
F0.0
tp7690
a(S'Ala271_Ile278'
p7691
F0.0
tp7692
a(S'Ala271_Met279'
p7693
F0.0
tp7694
a(S'Leu272_Lys273'
p7695
F0.0
tp7696
a(S'Leu272_Thr274'
p7697
F0.001099542567207657
tp7698
a(S'Leu272_Leu275'
p7699
F0.0
tp7700
a(S'Leu272_Gly276'
p7701
F0.00198103864608711
tp7702
a(S'Leu272_Ile277'
p7703
F0.0
tp7704
a(S'Leu272_Ile278'
p7705
F0.0
tp7706
a(S'Leu272_Met279'
p7707
F0.0
tp7708
a(S'Leu272_Gly280'
p7709
F9.879465271456607e-06
tp7710
a(S'Lys273_Thr274'
p7711
F0.0
tp7712
a(S'Lys273_Leu275'
p7713
F1.3151296715433809e-05
tp7714
a(S'Lys273_Gly276'
p7715
F0.0
tp7716
a(S'Lys273_Ile277'
p7717
F0.0005556528507492246
tp7718
a(S'Lys273_Ile278'
p7719
F0.0
tp7720
a(S'Lys273_Met279'
p7721
F0.0
tp7722
a(S'Lys273_Gly280'
p7723
F5.389028484079743e-05
tp7724
a(S'Lys273_Thr281'
p7725
F0.0
tp7726
a(S'Lys273_Ile325'
p7727
F0.0
tp7728
a(S'Lys273_Arg328'
p7729
F0.0
tp7730
a(S'Thr274_Leu275'
p7731
F0.000994285112687555
tp7732
a(S'Thr274_Gly276'
p7733
F0.0
tp7734
a(S'Thr274_Ile277'
p7735
F0.000462105613517695
tp7736
a(S'Thr274_Ile278'
p7737
F0.0
tp7738
a(S'Thr274_Met279'
p7739
F0.0
tp7740
a(S'Thr274_Gly280'
p7741
F0.003296444972731579
tp7742
a(S'Thr274_Thr281'
p7743
F0.0004892393838026026
tp7744
a(S'Thr274_Phe282'
p7745
F0.0
tp7746
a(S'Thr274_Leu324'
p7747
F0.0
tp7748
a(S'Thr274_Ile325'
p7749
F0.0
tp7750
a(S'Thr274_Tyr326'
p7751
F0.0
tp7752
a(S'Thr274_Cys327'
p7753
F0.0
tp7754
a(S'Thr274_Arg328'
p7755
F0.0
tp7756
a(S'Thr274_Ser329'
p7757
F0.0
tp7758
a(S'Leu275_Gly276'
p7759
F0.0
tp7760
a(S'Leu275_Ile277'
p7761
F0.0
tp7762
a(S'Leu275_Ile278'
p7763
F0.0
tp7764
a(S'Leu275_Met279'
p7765
F0.0
tp7766
a(S'Leu275_Gly280'
p7767
F0.0023449420615661415
tp7768
a(S'Leu275_Thr281'
p7769
F0.0023257080497518104
tp7770
a(S'Leu275_Phe282'
p7771
F0.0010419511446205017
tp7772
a(S'Leu275_Thr283'
p7773
F0.0
tp7774
a(S'Leu275_Ile325'
p7775
F0.0
tp7776
a(S'Leu275_Tyr326'
p7777
F0.0
tp7778
a(S'Gly276_Ile277'
p7779
F0.0
tp7780
a(S'Gly276_Ile278'
p7781
F0.0
tp7782
a(S'Gly276_Met279'
p7783
F9.757179945946328e-05
tp7784
a(S'Gly276_Gly280'
p7785
F0.0
tp7786
a(S'Gly276_Thr281'
p7787
F0.0
tp7788
a(S'Gly276_Phe282'
p7789
F0.0
tp7790
a(S'Gly276_Thr283'
p7791
F0.0
tp7792
a(S'Gly276_Leu284'
p7793
F0.0
tp7794
a(S'Gly276_Ile325'
p7795
F0.0
tp7796
a(S'Gly276_Tyr326'
p7797
F0.0
tp7798
a(S'Ile277_Ile278'
p7799
F0.0
tp7800
a(S'Ile277_Met279'
p7801
F0.0
tp7802
a(S'Ile277_Gly280'
p7803
F0.0
tp7804
a(S'Ile277_Thr281'
p7805
F0.0
tp7806
a(S'Ile277_Phe282'
p7807
F0.0
tp7808
a(S'Ile277_Thr283'
p7809
F0.0
tp7810
a(S'Ile277_Leu284'
p7811
F0.0
tp7812
a(S'Ile277_Cys285'
p7813
F0.0
tp7814
a(S'Ile277_Asn318'
p7815
F0.0
tp7816
a(S'Ile277_Phe321'
p7817
F0.0
tp7818
a(S'Ile277_Asn322'
p7819
F0.0012780015567232172
tp7820
a(S'Ile277_Leu324'
p7821
F0.0
tp7822
a(S'Ile277_Ile325'
p7823
F0.0
tp7824
a(S'Ile277_Tyr326'
p7825
F0.0007794482490886471
tp7826
a(S'Ile277_Arg328'
p7827
F0.0
tp7828
a(S'Ile278_Met279'
p7829
F0.0
tp7830
a(S'Ile278_Gly280'
p7831
F0.0004848417742841088
tp7832
a(S'Ile278_Thr281'
p7833
F0.0
tp7834
a(S'Ile278_Phe282'
p7835
F0.0005282243295066553
tp7836
a(S'Ile278_Thr283'
p7837
F0.0
tp7838
a(S'Ile278_Leu284'
p7839
F0.0
tp7840
a(S'Ile278_Cys285'
p7841
F0.0
tp7842
a(S'Ile278_Trp286'
p7843
F0.0
tp7844
a(S'Ile278_Asn318'
p7845
F0.0005334267367192554
tp7846
a(S'Ile278_Phe321'
p7847
F0.0
tp7848
a(S'Ile278_Asn322'
p7849
F0.0
tp7850
a(S'Ile278_Leu324'
p7851
F0.0
tp7852
a(S'Ile278_Ile325'
p7853
F0.00026674451191033695
tp7854
a(S'Ile278_Tyr326'
p7855
F0.0
tp7856
a(S'Ile278_Cys327'
p7857
F0.0
tp7858
a(S'Ile278_Arg328'
p7859
F0.0
tp7860
a(S'Met279_Gly280'
p7861
F0.0
tp7862
a(S'Met279_Thr281'
p7863
F1.921946639970447e-06
tp7864
a(S'Met279_Phe282'
p7865
F0.0
tp7866
a(S'Met279_Thr283'
p7867
F0.0
tp7868
a(S'Met279_Leu284'
p7869
F0.0
tp7870
a(S'Met279_Cys285'
p7871
F0.0
tp7872
a(S'Met279_Trp286'
p7873
F0.0
tp7874
a(S'Met279_Leu287'
p7875
F0.0
tp7876
a(S'Met279_Pro288'
p7877
F0.0
tp7878
a(S'Met279_Asn318'
p7879
F0.0
tp7880
a(S'Met279_Asn322'
p7881
F0.0
tp7882
a(S'Met279_Ile325'
p7883
F0.0004445222805993796
tp7884
a(S'Met279_Tyr326'
p7885
F0.00101265863813707
tp7886
a(S'Gly280_Thr281'
p7887
F0.0
tp7888
a(S'Gly280_Phe282'
p7889
F0.0
tp7890
a(S'Gly280_Thr283'
p7891
F0.0
tp7892
a(S'Gly280_Leu284'
p7893
F0.0
tp7894
a(S'Gly280_Cys285'
p7895
F0.001953602397798303
tp7896
a(S'Gly280_Trp286'
p7897
F0.0
tp7898
a(S'Gly280_Leu287'
p7899
F0.0008093770280585632
tp7900
a(S'Gly280_Pro288'
p7901
F0.0
tp7902
a(S'Gly280_Ile314'
p7903
F0.0
tp7904
a(S'Gly280_Asn318'
p7905
F0.0
tp7906
a(S'Gly280_Phe321'
p7907
F0.0
tp7908
a(S'Gly280_Asn322'
p7909
F0.0
tp7910
a(S'Gly280_Ile325'
p7911
F0.0
tp7912
a(S'Gly280_Tyr326'
p7913
F0.0
tp7914
a(S'Thr281_Phe282'
p7915
F0.0
tp7916
a(S'Thr281_Thr283'
p7917
F0.0
tp7918
a(S'Thr281_Leu284'
p7919
F0.0
tp7920
a(S'Thr281_Cys285'
p7921
F0.0
tp7922
a(S'Thr281_Trp286'
p7923
F0.0
tp7924
a(S'Thr281_Leu287'
p7925
F0.0
tp7926
a(S'Thr281_Pro288'
p7927
F0.0
tp7928
a(S'Thr281_Ile314'
p7929
F0.0
tp7930
a(S'Thr281_Gly315'
p7931
F0.0011503278719166474
tp7932
a(S'Thr281_Tyr316'
p7933
F0.0008826143408863586
tp7934
a(S'Thr281_Val317'
p7935
F0.0
tp7936
a(S'Thr281_Asn318'
p7937
F0.0
tp7938
a(S'Thr281_Ser319'
p7939
F0.0
tp7940
a(S'Thr281_Gly320'
p7941
F0.0
tp7942
a(S'Thr281_Phe321'
p7943
F0.0
tp7944
a(S'Thr281_Asn322'
p7945
F0.0006358816013339901
tp7946
a(S'Thr281_Pro323'
p7947
F0.0
tp7948
a(S'Thr281_Leu324'
p7949
F0.0
tp7950
a(S'Thr281_Ile325'
p7951
F0.0
tp7952
a(S'Thr281_Tyr326'
p7953
F0.0
tp7954
a(S'Phe282_Thr283'
p7955
F0.0
tp7956
a(S'Phe282_Leu284'
p7957
F0.0
tp7958
a(S'Phe282_Cys285'
p7959
F0.0007418950858920807
tp7960
a(S'Phe282_Trp286'
p7961
F0.0
tp7962
a(S'Phe282_Leu287'
p7963
F0.0
tp7964
a(S'Phe282_Pro288'
p7965
F2.935672666295415e-06
tp7966
a(S'Phe282_Phe289'
p7967
F0.0
tp7968
a(S'Phe282_Phe290'
p7969
F0.0
tp7970
a(S'Phe282_Leu311'
p7971
F0.0
tp7972
a(S'Phe282_Ile314'
p7973
F0.0
tp7974
a(S'Phe282_Gly315'
p7975
F0.0028678684436179375
tp7976
a(S'Phe282_Tyr316'
p7977
F8.278001549199484e-06
tp7978
a(S'Phe282_Val317'
p7979
F0.0
tp7980
a(S'Phe282_Asn318'
p7981
F0.0
tp7982
a(S'Phe282_Ser319'
p7983
F0.0
tp7984
a(S'Phe282_Phe321'
p7985
F0.0
tp7986
a(S'Phe282_Asn322'
p7987
F0.0
tp7988
a(S'Phe282_Ile325'
p7989
F0.0
tp7990
a(S'Phe282_Tyr326'
p7991
F0.0
tp7992
a(S'Thr283_Leu284'
p7993
F0.0
tp7994
a(S'Thr283_Cys285'
p7995
F0.0
tp7996
a(S'Thr283_Trp286'
p7997
F0.0
tp7998
a(S'Thr283_Leu287'
p7999
F0.0
tp8000
a(S'Thr283_Pro288'
p8001
F0.0
tp8002
a(S'Thr283_Phe289'
p8003
F0.0
tp8004
a(S'Thr283_Phe290'
p8005
F0.00043760216591744064
tp8006
a(S'Thr283_Ile291'
p8007
F0.0019918282276133103
tp8008
a(S'Thr283_Leu311'
p8009
F0.0
tp8010
a(S'Thr283_Ile314'
p8011
F0.0
tp8012
a(S'Thr283_Gly315'
p8013
F0.0
tp8014
a(S'Thr283_Asn318'
p8015
F0.0
tp8016
a(S'Thr283_Phe321'
p8017
F0.0
tp8018
a(S'Thr283_Asn322'
p8019
F0.0
tp8020
a(S'Thr283_Ile325'
p8021
F0.0
tp8022
a(S'Thr283_Tyr326'
p8023
F0.0
tp8024
a(S'Leu284_Cys285'
p8025
F0.0
tp8026
a(S'Leu284_Trp286'
p8027
F0.0
tp8028
a(S'Leu284_Leu287'
p8029
F0.0003924542190207855
tp8030
a(S'Leu284_Pro288'
p8031
F0.0
tp8032
a(S'Leu284_Phe289'
p8033
F0.0
tp8034
a(S'Leu284_Phe290'
p8035
F0.0
tp8036
a(S'Leu284_Leu310'
p8037
F0.0
tp8038
a(S'Leu284_Leu311'
p8039
F0.0
tp8040
a(S'Leu284_Asn312'
p8041
F0.0
tp8042
a(S'Leu284_Trp313'
p8043
F0.0
tp8044
a(S'Leu284_Ile314'
p8045
F0.0
tp8046
a(S'Leu284_Gly315'
p8047
F0.00020005838393275272
tp8048
a(S'Leu284_Tyr316'
p8049
F0.0
tp8050
a(S'Leu284_Val317'
p8051
F0.0
tp8052
a(S'Leu284_Asn318'
p8053
F0.0
tp8054
a(S'Leu284_Phe321'
p8055
F0.0
tp8056
a(S'Leu284_Ile325'
p8057
F0.0
tp8058
a(S'Cys285_Trp286'
p8059
F0.0
tp8060
a(S'Cys285_Leu287'
p8061
F0.0
tp8062
a(S'Cys285_Pro288'
p8063
F0.0
tp8064
a(S'Cys285_Phe289'
p8065
F0.00041676396754041964
tp8066
a(S'Cys285_Phe290'
p8067
F0.0
tp8068
a(S'Cys285_Ile291'
p8069
F0.0
tp8070
a(S'Cys285_Val292'
p8071
F0.0
tp8072
a(S'Cys285_Tyr308'
p8073
F0.0
tp8074
a(S'Cys285_Ile309'
p8075
F9.520529756725133e-06
tp8076
a(S'Cys285_Leu310'
p8077
F0.0
tp8078
a(S'Cys285_Leu311'
p8079
F0.0
tp8080
a(S'Cys285_Asn312'
p8081
F0.0
tp8082
a(S'Cys285_Trp313'
p8083
F0.0
tp8084
a(S'Cys285_Ile314'
p8085
F0.0
tp8086
a(S'Cys285_Gly315'
p8087
F0.0
tp8088
a(S'Cys285_Tyr316'
p8089
F0.0
tp8090
a(S'Cys285_Val317'
p8091
F0.0
tp8092
a(S'Cys285_Asn318'
p8093
F0.0006718015542153872
tp8094
a(S'Cys285_Ser319'
p8095
F0.0
tp8096
a(S'Cys285_Gly320'
p8097
F0.0017421084916696271
tp8098
a(S'Cys285_Phe321'
p8099
F0.0
tp8100
a(S'Cys285_Asn322'
p8101
F0.001018861619671762
tp8102
a(S'Cys285_Ile325'
p8103
F0.0004815939180467069
tp8104
a(S'Trp286_Leu287'
p8105
F0.0
tp8106
a(S'Trp286_Pro288'
p8107
F0.0
tp8108
a(S'Trp286_Phe289'
p8109
F0.0
tp8110
a(S'Trp286_Phe290'
p8111
F0.0
tp8112
a(S'Trp286_Ile291'
p8113
F0.0
tp8114
a(S'Trp286_Val292'
p8115
F0.0
tp8116
a(S'Trp286_Asn293'
p8117
F0.0
tp8118
a(S'Trp286_Ile294'
p8119
F0.0
tp8120
a(S'Trp286_Tyr308'
p8121
F0.0
tp8122
a(S'Trp286_Ile309'
p8123
F2.608529232312547e-06
tp8124
a(S'Trp286_Leu310'
p8125
F0.0
tp8126
a(S'Trp286_Leu311'
p8127
F0.0
tp8128
a(S'Trp286_Asn312'
p8129
F0.0
tp8130
a(S'Trp286_Trp313'
p8131
F0.0
tp8132
a(S'Trp286_Ile314'
p8133
F0.0
tp8134
a(S'Trp286_Gly315'
p8135
F0.0
tp8136
a(S'Trp286_Tyr316'
p8137
F0.0
tp8138
a(S'Trp286_Val317'
p8139
F0.0
tp8140
a(S'Trp286_Asn318'
p8141
F0.0
tp8142
a(S'Trp286_Ser319'
p8143
F0.0
tp8144
a(S'Trp286_Gly320'
p8145
F0.0
tp8146
a(S'Trp286_Phe321'
p8147
F0.0
tp8148
a(S'Trp286_Asn322'
p8149
F0.0
tp8150
a(S'Trp286_Tyr326'
p8151
F0.0
tp8152
a(S'Leu287_Pro288'
p8153
F0.0006559406050958499
tp8154
a(S'Leu287_Phe289'
p8155
F0.0
tp8156
a(S'Leu287_Phe290'
p8157
F0.0
tp8158
a(S'Leu287_Ile291'
p8159
F0.0
tp8160
a(S'Leu287_Val292'
p8161
F0.004498026805523548
tp8162
a(S'Leu287_Asn293'
p8163
F2.494453475383792e-05
tp8164
a(S'Leu287_Ile294'
p8165
F0.0
tp8166
a(S'Leu287_Val295'
p8167
F0.0
tp8168
a(S'Leu287_Tyr308'
p8169
F0.0
tp8170
a(S'Leu287_Leu311'
p8171
F0.0029263742834358384
tp8172
a(S'Leu287_Asn312'
p8173
F0.0029602050054157864
tp8174
a(S'Leu287_Ile314'
p8175
F0.0
tp8176
a(S'Leu287_Gly315'
p8177
F0.0
tp8178
a(S'Leu287_Tyr316'
p8179
F0.0
tp8180
a(S'Leu287_Asn318'
p8181
F0.0
tp8182
a(S'Pro288_Phe289'
p8183
F0.0
tp8184
a(S'Pro288_Phe290'
p8185
F0.0
tp8186
a(S'Pro288_Ile291'
p8187
F0.002272787997763736
tp8188
a(S'Pro288_Val292'
p8189
F0.0
tp8190
a(S'Pro288_Asn293'
p8191
F0.00047379482625647734
tp8192
a(S'Pro288_Ile294'
p8193
F0.0
tp8194
a(S'Pro288_Val295'
p8195
F0.0
tp8196
a(S'Pro288_His296'
p8197
F0.0
tp8198
a(S'Pro288_Ile303'
p8199
F0.0
tp8200
a(S'Pro288_Val307'
p8201
F0.0010229525585431197
tp8202
a(S'Pro288_Tyr308'
p8203
F0.0004963279977072254
tp8204
a(S'Pro288_Ile309'
p8205
F0.0032567788931521405
tp8206
a(S'Pro288_Leu310'
p8207
F0.00603855613925527
tp8208
a(S'Pro288_Leu311'
p8209
F0.0006823588356108648
tp8210
a(S'Pro288_Asn312'
p8211
F0.008580750708690748
tp8212
a(S'Pro288_Trp313'
p8213
F0.007603537312821954
tp8214
a(S'Pro288_Ile314'
p8215
F0.0005154585431527126
tp8216
a(S'Pro288_Gly315'
p8217
F0.003318694242787414
tp8218
a(S'Pro288_Asn318'
p8219
F0.0
tp8220
a(S'Phe289_Phe290'
p8221
F0.0
tp8222
a(S'Phe289_Ile291'
p8223
F0.0006490887150065585
tp8224
a(S'Phe289_Val292'
p8225
F0.0
tp8226
a(S'Phe289_Asn293'
p8227
F0.0
tp8228
a(S'Phe289_Ile294'
p8229
F0.0
tp8230
a(S'Phe289_Val295'
p8231
F0.0006604930112679448
tp8232
a(S'Phe289_His296'
p8233
F0.0
tp8234
a(S'Phe289_Val297'
p8235
F0.0
tp8236
a(S'Phe289_Ile303'
p8237
F0.0
tp8238
a(S'Phe289_Arg304'
p8239
F0.000866203728870722
tp8240
a(S'Phe289_Lys305'
p8241
F0.0
tp8242
a(S'Phe289_Glu306'
p8243
F2.2268169674653974e-06
tp8244
a(S'Phe289_Val307'
p8245
F0.0
tp8246
a(S'Phe289_Tyr308'
p8247
F0.0
tp8248
a(S'Phe289_Ile309'
p8249
F0.0011558928849447927
tp8250
a(S'Phe289_Leu310'
p8251
F0.0
tp8252
a(S'Phe289_Leu311'
p8253
F0.0
tp8254
a(S'Phe289_Asn312'
p8255
F0.0016301992948781945
tp8256
a(S'Phe289_Trp313'
p8257
F0.0
tp8258
a(S'Phe289_Ile314'
p8259
F0.0
tp8260
a(S'Phe289_Gly315'
p8261
F0.0
tp8262
a(S'Phe289_Tyr316'
p8263
F0.0
tp8264
a(S'Phe289_Val317'
p8265
F0.0
tp8266
a(S'Phe289_Asn318'
p8267
F0.0
tp8268
a(S'Phe290_Ile291'
p8269
F0.0
tp8270
a(S'Phe290_Val292'
p8271
F0.00097511382873174
tp8272
a(S'Phe290_Asn293'
p8273
F0.0
tp8274
a(S'Phe290_Ile294'
p8275
F0.0006667444982781134
tp8276
a(S'Phe290_Val295'
p8277
F0.0
tp8278
a(S'Phe290_His296'
p8279
F0.0
tp8280
a(S'Phe290_Val297'
p8281
F0.0
tp8282
a(S'Phe290_Ile298'
p8283
F0.0
tp8284
a(S'Phe290_Ile303'
p8285
F0.0
tp8286
a(S'Phe290_Val307'
p8287
F0.0
tp8288
a(S'Phe290_Tyr308'
p8289
F0.0
tp8290
a(S'Phe290_Leu310'
p8291
F0.000996142448023488
tp8292
a(S'Phe290_Leu311'
p8293
F0.0
tp8294
a(S'Phe290_Asn312'
p8295
F0.0
tp8296
a(S'Phe290_Trp313'
p8297
F0.0022496428624228662
tp8298
a(S'Phe290_Ile314'
p8299
F0.0
tp8300
a(S'Phe290_Gly315'
p8301
F2.7822050137861974e-05
tp8302
a(S'Phe290_Tyr316'
p8303
F0.0
tp8304
a(S'Phe290_Asn318'
p8305
F0.0
tp8306
a(S'Ile291_Val292'
p8307
F0.000963075386401719
tp8308
a(S'Ile291_Asn293'
p8309
F0.0
tp8310
a(S'Ile291_Ile294'
p8311
F0.0
tp8312
a(S'Ile291_Val295'
p8313
F0.0
tp8314
a(S'Ile291_His296'
p8315
F0.0018622863572595573
tp8316
a(S'Ile291_Val297'
p8317
F0.0009979395615674399
tp8318
a(S'Ile291_Ile298'
p8319
F0.0
tp8320
a(S'Ile291_Gln299'
p8321
F0.0
tp8322
a(S'Ile291_Leu302'
p8323
F0.0008334500841581196
tp8324
a(S'Ile291_Ile303'
p8325
F0.0019893052987619247
tp8326
a(S'Ile291_Val307'
p8327
F0.0018859344379866627
tp8328
a(S'Ile291_Tyr308'
p8329
F0.0
tp8330
a(S'Ile291_Leu311'
p8331
F1.773939021745975e-05
tp8332
a(S'Ile291_Asn312'
p8333
F0.0
tp8334
a(S'Val292_Asn293'
p8335
F0.0
tp8336
a(S'Val292_Ile294'
p8337
F0.0
tp8338
a(S'Val292_Val295'
p8339
F0.0021001141214157925
tp8340
a(S'Val292_His296'
p8341
F0.001645670316101213
tp8342
a(S'Val292_Val297'
p8343
F0.0
tp8344
a(S'Val292_Ile298'
p8345
F0.00044452228059937965
tp8346
a(S'Val292_Gln299'
p8347
F0.0
tp8348
a(S'Val292_Asp300'
p8349
F0.000977239648025811
tp8350
a(S'Val292_Asn301'
p8351
F0.0016000933924824178
tp8352
a(S'Val292_Leu302'
p8353
F0.0
tp8354
a(S'Val292_Ile303'
p8355
F0.0
tp8356
a(S'Val292_Arg304'
p8357
F0.0
tp8358
a(S'Val292_Lys305'
p8359
F0.0
tp8360
a(S'Val292_Glu306'
p8361
F0.0
tp8362
a(S'Val292_Val307'
p8363
F0.0006576494014346973
tp8364
a(S'Val292_Tyr308'
p8365
F0.0
tp8366
a(S'Val292_Ile309'
p8367
F0.0020279103731569506
tp8368
a(S'Val292_Leu310'
p8369
F0.0020051743213724267
tp8370
a(S'Val292_Leu311'
p8371
F0.0
tp8372
a(S'Val292_Asn312'
p8373
F0.00038938229241724387
tp8374
a(S'Val292_Ile314'
p8375
F8.15959683710586e-06
tp8376
a(S'Asn293_Ile294'
p8377
F0.0
tp8378
a(S'Asn293_Val295'
p8379
F0.0
tp8380
a(S'Asn293_His296'
p8381
F0.0
tp8382
a(S'Asn293_Val297'
p8383
F0.0
tp8384
a(S'Asn293_Ile298'
p8385
F0.0
tp8386
a(S'Asn293_Gln299'
p8387
F0.0
tp8388
a(S'Asn293_Asp300'
p8389
F0.0007501751415727553
tp8390
a(S'Asn293_Leu302'
p8391
F0.0
tp8392
a(S'Asn293_Ile303'
p8393
F0.0
tp8394
a(S'Asn293_Arg304'
p8395
F0.0
tp8396
a(S'Asn293_Lys305'
p8397
F0.0
tp8398
a(S'Asn293_Val307'
p8399
F1.7334788663347743e-05
tp8400
a(S'Asn293_Tyr308'
p8401
F0.0
tp8402
a(S'Asn293_Ile309'
p8403
F0.00013165501660810503
tp8404
a(S'Asn293_Leu311'
p8405
F0.0
tp8406
a(S'Asn293_Asn312'
p8407
F0.0006667444982781135
tp8408
a(S'Ile294_Val295'
p8409
F0.0
tp8410
a(S'Ile294_His296'
p8411
F0.0
tp8412
a(S'Ile294_Val297'
p8413
F0.0
tp8414
a(S'Ile294_Ile298'
p8415
F0.0
tp8416
a(S'Ile294_Gln299'
p8417
F0.0
tp8418
a(S'Ile294_Asp300'
p8419
F0.0006976127259821075
tp8420
a(S'Ile294_Asn301'
p8421
F0.0
tp8422
a(S'Ile294_Leu302'
p8423
F0.0
tp8424
a(S'Ile294_Ile303'
p8425
F0.0
tp8426
a(S'Ile294_Tyr308'
p8427
F0.0
tp8428
a(S'Ile294_Leu311'
p8429
F0.0
tp8430
a(S'Val295_His296'
p8431
F0.0
tp8432
a(S'Val295_Val297'
p8433
F0.0008183728817157333
tp8434
a(S'Val295_Ile298'
p8435
F0.0
tp8436
a(S'Val295_Gln299'
p8437
F0.0
tp8438
a(S'Val295_Asp300'
p8439
F0.0
tp8440
a(S'Val295_Asn301'
p8441
F0.0
tp8442
a(S'Val295_Leu302'
p8443
F0.0
tp8444
a(S'Val295_Ile303'
p8445
F0.0
tp8446
a(S'Val295_Arg304'
p8447
F0.0
tp8448
a(S'Val295_Val307'
p8449
F0.0009723357266555823
tp8450
a(S'Val295_Tyr308'
p8451
F0.0
tp8452
a(S'Val295_Leu311'
p8453
F0.0
tp8454
a(S'His296_Val297'
p8455
F0.0
tp8456
a(S'His296_Ile298'
p8457
F0.0007159984267066938
tp8458
a(S'His296_Gln299'
p8459
F0.0
tp8460
a(S'His296_Asp300'
p8461
F0.0
tp8462
a(S'His296_Asn301'
p8463
F0.0015550868676936747
tp8464
a(S'His296_Leu302'
p8465
F0.000629739897515788
tp8466
a(S'His296_Ile303'
p8467
F0.0
tp8468
a(S'His296_Arg304'
p8469
F0.0
tp8470
a(S'His296_Lys305'
p8471
F0.0
tp8472
a(S'His296_Glu306'
p8473
F0.0
tp8474
a(S'His296_Val307'
p8475
F0.0
tp8476
a(S'His296_Tyr308'
p8477
F0.0
tp8478
a(S'His296_Ile309'
p8479
F0.0008334306228476418
tp8480
a(S'His296_Leu311'
p8481
F0.0
tp8482
a(S'Val297_Ile298'
p8483
F0.0
tp8484
a(S'Val297_Gln299'
p8485
F0.0
tp8486
a(S'Val297_Asp300'
p8487
F0.0
tp8488
a(S'Val297_Asn301'
p8489
F0.0009312518998834201
tp8490
a(S'Val297_Leu302'
p8491
F0.0
tp8492
a(S'Val297_Ile303'
p8493
F0.0
tp8494
a(S'Val297_Tyr308'
p8495
F0.0
tp8496
a(S'Ile298_Gln299'
p8497
F0.0
tp8498
a(S'Ile298_Asp300'
p8499
F0.0
tp8500
a(S'Ile298_Asn301'
p8501
F0.0
tp8502
a(S'Ile298_Leu302'
p8503
F0.0
tp8504
a(S'Ile298_Ile303'
p8505
F0.0
tp8506
a(S'Gln299_Asp300'
p8507
F0.0
tp8508
a(S'Gln299_Asn301'
p8509
F0.0
tp8510
a(S'Gln299_Leu302'
p8511
F0.0
tp8512
a(S'Gln299_Ile303'
p8513
F0.0
tp8514
a(S'Gln299_Arg304'
p8515
F0.0
tp8516
a(S'Gln299_Tyr308'
p8517
F0.0
tp8518
a(S'Asp300_Asn301'
p8519
F0.0
tp8520
a(S'Asp300_Leu302'
p8521
F0.00040537106224723175
tp8522
a(S'Asp300_Ile303'
p8523
F0.0015029250148506574
tp8524
a(S'Asp300_Arg304'
p8525
F0.0
tp8526
a(S'Asp300_Lys305'
p8527
F0.0
tp8528
a(S'Asn301_Leu302'
p8529
F0.0
tp8530
a(S'Asn301_Ile303'
p8531
F0.0
tp8532
a(S'Asn301_Arg304'
p8533
F0.0009730865650545448
tp8534
a(S'Asn301_Lys305'
p8535
F0.0
tp8536
a(S'Leu302_Ile303'
p8537
F0.0
tp8538
a(S'Leu302_Arg304'
p8539
F1.7659994838709687e-05
tp8540
a(S'Leu302_Lys305'
p8541
F0.0
tp8542
a(S'Leu302_Glu306'
p8543
F0.0
tp8544
a(S'Leu302_Val307'
p8545
F0.0007424769379215439
tp8546
a(S'Leu302_Tyr308'
p8547
F0.0
tp8548
a(S'Leu302_Leu311'
p8549
F0.0
tp8550
a(S'Ile303_Arg304'
p8551
F0.0007500875605628777
tp8552
a(S'Ile303_Lys305'
p8553
F0.0
tp8554
a(S'Ile303_Glu306'
p8555
F0.0
tp8556
a(S'Ile303_Val307'
p8557
F0.0
tp8558
a(S'Ile303_Tyr308'
p8559
F0.0
tp8560
a(S'Ile303_Ile309'
p8561
F0.0
tp8562
a(S'Ile303_Leu310'
p8563
F0.0
tp8564
a(S'Ile303_Leu311'
p8565
F0.0
tp8566
a(S'Ile303_Asn312'
p8567
F0.0
tp8568
a(S'Arg304_Lys305'
p8569
F0.0
tp8570
a(S'Arg304_Glu306'
p8571
F0.0
tp8572
a(S'Arg304_Val307'
p8573
F0.0
tp8574
a(S'Arg304_Tyr308'
p8575
F0.0008891224246215192
tp8576
a(S'Arg304_Ile309'
p8577
F0.0004001401296199255
tp8578
a(S'Arg304_Leu310'
p8579
F0.0
tp8580
a(S'Arg304_Leu311'
p8581
F0.001970053389615879
tp8582
a(S'Arg304_Asn312'
p8583
F0.0
tp8584
a(S'Lys305_Glu306'
p8585
F0.0
tp8586
a(S'Lys305_Val307'
p8587
F0.004865406905912581
tp8588
a(S'Lys305_Tyr308'
p8589
F0.0
tp8590
a(S'Lys305_Ile309'
p8591
F0.0
tp8592
a(S'Lys305_Leu310'
p8593
F0.0
tp8594
a(S'Lys305_Leu311'
p8595
F0.0
tp8596
a(S'Lys305_Asn312'
p8597
F0.0
tp8598
a(S'Lys305_Trp313'
p8599
F0.0006685346894347768
tp8600
a(S'Glu306_Val307'
p8601
F0.0
tp8602
a(S'Glu306_Tyr308'
p8603
F0.0006838143463398385
tp8604
a(S'Glu306_Ile309'
p8605
F0.0005864933800282654
tp8606
a(S'Glu306_Leu310'
p8607
F0.0
tp8608
a(S'Glu306_Leu311'
p8609
F0.0006299728756502741
tp8610
a(S'Glu306_Asn312'
p8611
F0.0
tp8612
a(S'Glu306_Trp313'
p8613
F0.005195416545888268
tp8614
a(S'Glu306_Ile314'
p8615
F0.0
tp8616
a(S'Val307_Tyr308'
p8617
F0.0
tp8618
a(S'Val307_Ile309'
p8619
F3.7324703646390304e-06
tp8620
a(S'Val307_Leu310'
p8621
F0.0
tp8622
a(S'Val307_Leu311'
p8623
F0.0009899114744843427
tp8624
a(S'Val307_Asn312'
p8625
F0.0
tp8626
a(S'Val307_Trp313'
p8627
F0.0
tp8628
a(S'Val307_Ile314'
p8629
F0.0008889926643708178
tp8630
a(S'Val307_Gly315'
p8631
F0.0
tp8632
a(S'Tyr308_Ile309'
p8633
F0.0
tp8634
a(S'Tyr308_Leu310'
p8635
F0.0
tp8636
a(S'Tyr308_Leu311'
p8637
F0.0
tp8638
a(S'Tyr308_Asn312'
p8639
F0.0
tp8640
a(S'Tyr308_Trp313'
p8641
F0.00048150079509133174
tp8642
a(S'Tyr308_Ile314'
p8643
F0.0
tp8644
a(S'Tyr308_Gly315'
p8645
F0.0
tp8646
a(S'Tyr308_Tyr316'
p8647
F0.0
tp8648
a(S'Ile309_Leu310'
p8649
F0.0
tp8650
a(S'Ile309_Leu311'
p8651
F0.0017654611387605522
tp8652
a(S'Ile309_Asn312'
p8653
F0.00019749353285669063
tp8654
a(S'Ile309_Trp313'
p8655
F0.0017166041784953438
tp8656
a(S'Ile309_Ile314'
p8657
F0.00020054831323355746
tp8658
a(S'Ile309_Gly315'
p8659
F1.1418340213082727e-05
tp8660
a(S'Ile309_Tyr316'
p8661
F0.0
tp8662
a(S'Ile309_Val317'
p8663
F0.0
tp8664
a(S'Leu310_Leu311'
p8665
F0.0
tp8666
a(S'Leu310_Asn312'
p8667
F0.0
tp8668
a(S'Leu310_Trp313'
p8669
F0.0
tp8670
a(S'Leu310_Ile314'
p8671
F0.0
tp8672
a(S'Leu310_Gly315'
p8673
F0.0
tp8674
a(S'Leu310_Tyr316'
p8675
F0.0
tp8676
a(S'Leu310_Val317'
p8677
F0.0
tp8678
a(S'Leu310_Asn318'
p8679
F0.0006667444982781135
tp8680
a(S'Leu311_Asn312'
p8681
F0.0
tp8682
a(S'Leu311_Trp313'
p8683
F0.0
tp8684
a(S'Leu311_Ile314'
p8685
F0.0
tp8686
a(S'Leu311_Gly315'
p8687
F0.0
tp8688
a(S'Leu311_Tyr316'
p8689
F0.0
tp8690
a(S'Leu311_Val317'
p8691
F0.0
tp8692
a(S'Leu311_Asn318'
p8693
F0.0
tp8694
a(S'Asn312_Trp313'
p8695
F0.0
tp8696
a(S'Asn312_Ile314'
p8697
F0.00037508757078637766
tp8698
a(S'Asn312_Gly315'
p8699
F0.0
tp8700
a(S'Asn312_Tyr316'
p8701
F0.0
tp8702
a(S'Asn312_Val317'
p8703
F0.0
tp8704
a(S'Asn312_Asn318'
p8705
F0.0005487956490549281
tp8706
a(S'Asn312_Ser319'
p8707
F0.0
tp8708
a(S'Trp313_Ile314'
p8709
F0.0
tp8710
a(S'Trp313_Gly315'
p8711
F0.0
tp8712
a(S'Trp313_Tyr316'
p8713
F0.0
tp8714
a(S'Trp313_Val317'
p8715
F0.0003208707897963411
tp8716
a(S'Trp313_Asn318'
p8717
F0.0
tp8718
a(S'Trp313_Ser319'
p8719
F0.0
tp8720
a(S'Trp313_Gly320'
p8721
F0.0
tp8722
a(S'Trp313_Phe321'
p8723
F0.0
tp8724
a(S'Ile314_Gly315'
p8725
F0.0
tp8726
a(S'Ile314_Tyr316'
p8727
F0.0004937050077017289
tp8728
a(S'Ile314_Val317'
p8729
F0.0
tp8730
a(S'Ile314_Asn318'
p8731
F0.00013645124295164619
tp8732
a(S'Ile314_Ser319'
p8733
F0.0
tp8734
a(S'Ile314_Gly320'
p8735
F0.0
tp8736
a(S'Ile314_Phe321'
p8737
F0.0
tp8738
a(S'Ile314_Asn322'
p8739
F0.0
tp8740
a(S'Gly315_Tyr316'
p8741
F8.722835988357677e-05
tp8742
a(S'Gly315_Val317'
p8743
F0.0
tp8744
a(S'Gly315_Asn318'
p8745
F0.0
tp8746
a(S'Gly315_Ser319'
p8747
F0.0
tp8748
a(S'Gly315_Gly320'
p8749
F0.0
tp8750
a(S'Gly315_Phe321'
p8751
F0.0
tp8752
a(S'Gly315_Asn322'
p8753
F0.0
tp8754
a(S'Tyr316_Val317'
p8755
F0.0
tp8756
a(S'Tyr316_Asn318'
p8757
F0.0
tp8758
a(S'Tyr316_Ser319'
p8759
F0.0
tp8760
a(S'Tyr316_Gly320'
p8761
F0.0
tp8762
a(S'Tyr316_Phe321'
p8763
F0.0
tp8764
a(S'Tyr316_Asn322'
p8765
F0.0
tp8766
a(S'Tyr316_Pro323'
p8767
F0.0
tp8768
a(S'Val317_Asn318'
p8769
F0.0
tp8770
a(S'Val317_Ser319'
p8771
F0.0
tp8772
a(S'Val317_Gly320'
p8773
F0.0
tp8774
a(S'Val317_Phe321'
p8775
F0.0
tp8776
a(S'Val317_Asn322'
p8777
F0.0
tp8778
a(S'Val317_Pro323'
p8779
F0.0
tp8780
a(S'Val317_Leu324'
p8781
F0.0
tp8782
a(S'Val317_Ile325'
p8783
F0.0
tp8784
a(S'Asn318_Ser319'
p8785
F0.0
tp8786
a(S'Asn318_Gly320'
p8787
F0.0004783725540463947
tp8788
a(S'Asn318_Phe321'
p8789
F0.0
tp8790
a(S'Asn318_Asn322'
p8791
F0.001992343004294009
tp8792
a(S'Asn318_Pro323'
p8793
F0.0
tp8794
a(S'Asn318_Leu324'
p8795
F0.0
tp8796
a(S'Asn318_Ile325'
p8797
F0.0
tp8798
a(S'Asn318_Tyr326'
p8799
F0.0
tp8800
a(S'Ser319_Gly320'
p8801
F0.0
tp8802
a(S'Ser319_Phe321'
p8803
F0.0001344135669611051
tp8804
a(S'Ser319_Asn322'
p8805
F0.0
tp8806
a(S'Ser319_Pro323'
p8807
F0.0
tp8808
a(S'Ser319_Leu324'
p8809
F0.0
tp8810
a(S'Ser319_Ile325'
p8811
F0.0
tp8812
a(S'Ser319_Tyr326'
p8813
F0.0
tp8814
a(S'Ser319_Cys327'
p8815
F0.0
tp8816
a(S'Gly320_Phe321'
p8817
F0.0008209440003221341
tp8818
a(S'Gly320_Asn322'
p8819
F0.00032418760501614344
tp8820
a(S'Gly320_Pro323'
p8821
F0.0
tp8822
a(S'Gly320_Leu324'
p8823
F0.000652819370199609
tp8824
a(S'Gly320_Ile325'
p8825
F0.0
tp8826
a(S'Gly320_Tyr326'
p8827
F0.0004962265087759459
tp8828
a(S'Gly320_Cys327'
p8829
F0.0
tp8830
a(S'Phe321_Asn322'
p8831
F1.0148591149708815e-05
tp8832
a(S'Phe321_Pro323'
p8833
F0.0
tp8834
a(S'Phe321_Leu324'
p8835
F0.0
tp8836
a(S'Phe321_Ile325'
p8837
F0.000664567835115392
tp8838
a(S'Phe321_Tyr326'
p8839
F0.0
tp8840
a(S'Phe321_Cys327'
p8841
F0.0
tp8842
a(S'Phe321_Arg328'
p8843
F0.0005000583737085851
tp8844
a(S'Phe321_Phe336'
p8845
F0.0
tp8846
a(S'Asn322_Pro323'
p8847
F0.0006251094570928775
tp8848
a(S'Asn322_Leu324'
p8849
F0.0
tp8850
a(S'Asn322_Ile325'
p8851
F0.0
tp8852
a(S'Asn322_Tyr326'
p8853
F0.00026674451191033695
tp8854
a(S'Asn322_Cys327'
p8855
F0.0
tp8856
a(S'Asn322_Arg328'
p8857
F0.0
tp8858
a(S'Asn322_Ser329'
p8859
F0.006943153296533732
tp8860
a(S'Asn322_Phe332'
p8861
F0.0
tp8862
a(S'Asn322_Phe336'
p8863
F0.0014659930577173128
tp8864
a(S'Pro323_Leu324'
p8865
F0.0
tp8866
a(S'Pro323_Ile325'
p8867
F0.0
tp8868
a(S'Pro323_Tyr326'
p8869
F0.0
tp8870
a(S'Pro323_Cys327'
p8871
F0.0
tp8872
a(S'Pro323_Arg328'
p8873
F0.0
tp8874
a(S'Pro323_Ser329'
p8875
F0.0006100435436040108
tp8876
a(S'Pro323_Phe332'
p8877
F0.0
tp8878
a(S'Pro323_Arg333'
p8879
F0.0
tp8880
a(S'Pro323_Phe336'
p8881
F0.0
tp8882
a(S'Leu324_Ile325'
p8883
F7.639025904756993e-06
tp8884
a(S'Leu324_Tyr326'
p8885
F0.0
tp8886
a(S'Leu324_Cys327'
p8887
F0.0
tp8888
a(S'Leu324_Arg328'
p8889
F0.0012891146137382003
tp8890
a(S'Leu324_Ser329'
p8891
F0.0
tp8892
a(S'Leu324_Phe332'
p8893
F0.0
tp8894
a(S'Leu324_Arg333'
p8895
F0.0
tp8896
a(S'Leu324_Phe336'
p8897
F0.00043760216591744064
tp8898
a(S'Ile325_Tyr326'
p8899
F0.0
tp8900
a(S'Ile325_Cys327'
p8901
F0.0006647439655274347
tp8902
a(S'Ile325_Arg328'
p8903
F0.0009749111544489821
tp8904
a(S'Ile325_Ser329'
p8905
F0.0013198892331643091
tp8906
a(S'Ile325_Phe332'
p8907
F0.0
tp8908
a(S'Ile325_Arg333'
p8909
F0.0
tp8910
a(S'Ile325_Phe336'
p8911
F0.0
tp8912
a(S'Tyr326_Cys327'
p8913
F0.0
tp8914
a(S'Tyr326_Arg328'
p8915
F0.0018970142502605836
tp8916
a(S'Tyr326_Ser329'
p8917
F0.0
tp8918
a(S'Tyr326_Pro330'
p8919
F0.0
tp8920
a(S'Tyr326_Asp331'
p8921
F0.0
tp8922
a(S'Tyr326_Phe332'
p8923
F0.0
tp8924
a(S'Tyr326_Arg333'
p8925
F0.0
tp8926
a(S'Tyr326_Phe336'
p8927
F0.0
tp8928
a(S'Cys327_Arg328'
p8929
F0.0
tp8930
a(S'Cys327_Ser329'
p8931
F0.0
tp8932
a(S'Cys327_Pro330'
p8933
F0.0
tp8934
a(S'Cys327_Asp331'
p8935
F0.0
tp8936
a(S'Cys327_Phe332'
p8937
F0.0
tp8938
a(S'Cys327_Arg333'
p8939
F0.0
tp8940
a(S'Cys327_Ile334'
p8941
F0.0
tp8942
a(S'Cys327_Ala335'
p8943
F0.0
tp8944
a(S'Cys327_Phe336'
p8945
F0.0
tp8946
a(S'Cys327_Gln337'
p8947
F0.0
tp8948
a(S'Arg328_Ser329'
p8949
F0.0
tp8950
a(S'Arg328_Pro330'
p8951
F0.0
tp8952
a(S'Arg328_Asp331'
p8953
F0.0
tp8954
a(S'Arg328_Phe332'
p8955
F0.0
tp8956
a(S'Arg328_Arg333'
p8957
F0.0
tp8958
a(S'Arg328_Ile334'
p8959
F0.0
tp8960
a(S'Arg328_Ala335'
p8961
F0.0
tp8962
a(S'Arg328_Phe336'
p8963
F0.0
tp8964
a(S'Arg328_Gln337'
p8965
F0.0008335279350808393
tp8966
a(S'Ser329_Pro330'
p8967
F0.0
tp8968
a(S'Ser329_Asp331'
p8969
F0.0
tp8970
a(S'Ser329_Phe332'
p8971
F0.0005836399205793289
tp8972
a(S'Ser329_Arg333'
p8973
F0.00096913351626849
tp8974
a(S'Ser329_Ile334'
p8975
F0.0
tp8976
a(S'Ser329_Ala335'
p8977
F0.0
tp8978
a(S'Ser329_Phe336'
p8979
F0.0
tp8980
a(S'Ser329_Gln337'
p8981
F0.0
tp8982
a(S'Pro330_Asp331'
p8983
F0.0
tp8984
a(S'Pro330_Phe332'
p8985
F0.0008001868176776055
tp8986
a(S'Pro330_Arg333'
p8987
F0.0
tp8988
a(S'Pro330_Ile334'
p8989
F0.0
tp8990
a(S'Pro330_Ala335'
p8991
F0.0
tp8992
a(S'Pro330_Phe336'
p8993
F0.0
tp8994
a(S'Pro330_Gln337'
p8995
F0.0
tp8996
a(S'Asp331_Phe332'
p8997
F0.0003937657080581166
tp8998
a(S'Asp331_Arg333'
p8999
F0.0
tp9000
a(S'Asp331_Ile334'
p9001
F0.0
tp9002
a(S'Asp331_Ala335'
p9003
F0.0
tp9004
a(S'Asp331_Phe336'
p9005
F0.0006418165100122455
tp9006
a(S'Asp331_Gln337'
p9007
F0.0007759840346482524
tp9008
a(S'Phe332_Arg333'
p9009
F0.0
tp9010
a(S'Phe332_Ile334'
p9011
F0.0
tp9012
a(S'Phe332_Ala335'
p9013
F0.0
tp9014
a(S'Phe332_Phe336'
p9015
F0.0
tp9016
a(S'Phe332_Gln337'
p9017
F0.00046796044266540993
tp9018
a(S'Arg333_Ile334'
p9019
F0.0
tp9020
a(S'Arg333_Ala335'
p9021
F0.0
tp9022
a(S'Arg333_Phe336'
p9023
F0.0
tp9024
a(S'Arg333_Gln337'
p9025
F0.0
tp9026
a(S'Ile334_Ala335'
p9027
F0.001750102148027645
tp9028
a(S'Ile334_Phe336'
p9029
F0.0
tp9030
a(S'Ile334_Gln337'
p9031
F0.0
tp9032
a(S'Ala335_Phe336'
p9033
F0.0
tp9034
a(S'Ala335_Gln337'
p9035
F0.0
tp9036
a(S'Phe336_Gln337'
p9037
F0.0
tp9038
a(S'Val34_Lys97'
p9039
F0.0
tp9040
a(S'Pro88_Met36'
p9041
F0.0
tp9042
a(S'Gly37_Lys97'
p9043
F0.0
tp9044
a(S'Ala92_Ile38'
p9045
F0.0
tp9046
a(S'Met40_Asn312'
p9047
F0.0
tp9048
a(S'Leu84_Ser41'
p9049
F0.0
tp9050
a(S'Ile43_Leu95'
p9051
F0.0008076086937057988
tp9052
a(S'Ile43_Leu324'
p9053
F0.0
tp9054
a(S'Val44_Pro323'
p9055
F0.0
tp9056
a(S'Ala91_Ile47'
p9057
F0.0
tp9058
a(S'Ile47_Tyr326'
p9059
F0.0
tp9060
a(S'Asn51_Asn69'
p9061
F1.5833280906343764e-06
tp9062
a(S'Asn51_Ile278'
p9063
F0.0
tp9064
a(S'Val52_Asn322'
p9065
F0.0
tp9066
a(S'Val52_Tyr326'
p9067
F0.0
tp9068
a(S'Leu53_Ser319'
p9069
F0.0
tp9070
a(S'Leu53_Asn322'
p9071
F0.0
tp9072
a(S'Leu53_Tyr326'
p9073
F0.0
tp9074
a(S'Val54_Ile278'
p9075
F0.0
tp9076
a(S'Ile55_Asn322'
p9077
F0.0
tp9078
a(S'Ile55_Tyr326'
p9079
F0.0
tp9080
a(S'Ala57_Tyr70'
p9081
F0.0
tp9082
a(S'Ala57_Tyr326'
p9083
F0.0
tp9084
a(S'Ile58_Arg151'
p9085
F0.0
tp9086
a(S'Ile58_Ile154'
p9087
F0.0
tp9088
a(S'Ile58_Leu275'
p9089
F0.000496714606211438
tp9090
a(S'Ala59_Ser74'
p9091
F0.0
tp9092
a(S'Ala59_Arg151'
p9093
F0.0
tp9094
a(S'Lys60_Thr66'
p9095
F0.0011084136041662838
tp9096
a(S'Lys60_Asn69'
p9097
F0.0
tp9098
a(S'Lys60_Tyr70'
p9099
F0.0
tp9100
a(S'Lys60_Gln337'
p9101
F0.0
tp9102
a(S'Phe61_Tyr70'
p9103
F0.0
tp9104
a(S'Glu62_Tyr70'
p9105
F0.0
tp9106
a(S'Arg63_Tyr70'
p9107
F0.0
tp9108
a(S'Arg63_Lys147'
p9109
F0.0003820211930465868
tp9110
a(S'Arg63_Lys267'
p9111
F0.0
tp9112
a(S'Arg63_Phe336'
p9113
F0.0024275542224911346
tp9114
a(S'Arg63_Gln337'
p9115
F6.797172421765155e-05
tp9116
a(S'Gln65_Ser143'
p9117
F0.0
tp9118
a(S'Gln65_Asn148'
p9119
F0.0
tp9120
a(S'Thr66_Ser143'
p9121
F0.0
tp9122
a(S'Thr66_Asn148'
p9123
F0.0
tp9124
a(S'Thr66_Ala271'
p9125
F0.0005715286464849168
tp9126
a(S'Thr66_Leu275'
p9127
F0.0
tp9128
a(S'Val67_Leu275'
p9129
F0.0
tp9130
a(S'Thr68_Ser143'
p9131
F0.0
tp9132
a(S'Thr68_Leu144'
p9133
F0.0
tp9134
a(S'Thr68_Glu268'
p9135
F0.0
tp9136
a(S'Thr68_Ala271'
p9137
F0.0
tp9138
a(S'Thr68_Leu272'
p9139
F0.0
tp9140
a(S'Thr68_Thr274'
p9141
F0.0025273291827433565
tp9142
a(S'Thr68_Leu275'
p9143
F0.0
tp9144
a(S'Thr68_Gly276'
p9145
F0.0
tp9146
a(S'Thr68_Met279'
p9147
F0.0
tp9148
a(S'Asn69_Ser143'
p9149
F0.0
tp9150
a(S'Asn69_Ala271'
p9151
F0.0
tp9152
a(S'Asn69_Thr274'
p9153
F0.0
tp9154
a(S'Asn69_Leu275'
p9155
F0.0
tp9156
a(S'Asn69_Ile278'
p9157
F0.0
tp9158
a(S'Tyr70_Arg131'
p9159
F0.0
tp9160
a(S'Tyr70_Ser143'
p9161
F0.0
tp9162
a(S'Tyr70_Leu275'
p9163
F0.0
tp9164
a(S'Phe71_Gln142'
p9165
F0.0
tp9166
a(S'Phe71_Ser143'
p9167
F0.0
tp9168
a(S'Phe71_Leu275'
p9169
F0.0009815960669094436
tp9170
a(S'Phe71_Ile278'
p9171
F0.0
tp9172
a(S'Phe71_Met279'
p9173
F0.0
tp9174
a(S'Ile72_Ala271'
p9175
F0.0
tp9176
a(S'Ile72_Thr274'
p9177
F0.0
tp9178
a(S'Ile72_Leu275'
p9179
F0.0
tp9180
a(S'Ile72_Gly276'
p9181
F0.0
tp9182
a(S'Ile72_Ile277'
p9183
F0.0019514473120335035
tp9184
a(S'Ile72_Met279'
p9185
F0.0
tp9186
a(S'Thr73_Leu275'
p9187
F0.0
tp9188
a(S'Thr73_Ile278'
p9189
F0.0
tp9190
a(S'Leu75_Thr274'
p9191
F0.0
tp9192
a(S'Leu75_Leu275'
p9193
F0.0
tp9194
a(S'Leu75_Gly276'
p9195
F0.0
tp9196
a(S'Leu75_Ile277'
p9197
F0.0
tp9198
a(S'Leu75_Met279'
p9199
F0.0
tp9200
a(S'Leu75_Gly280'
p9201
F0.0
tp9202
a(S'Leu75_Thr281'
p9203
F0.0
tp9204
a(S'Leu75_Thr283'
p9205
F0.0009232924819356984
tp9206
a(S'Ala76_Ile278'
p9207
F0.0
tp9208
a(S'Ala76_Phe282'
p9209
F0.0
tp9210
a(S'Cys77_Tyr326'
p9211
F0.0
tp9212
a(S'Ala78_Ser111'
p9213
F0.0
tp9214
a(S'Ala78_Phe282'
p9215
F0.0008000933979337359
tp9216
a(S'Ala78_Tyr326'
p9217
F0.0
tp9218
a(S'Asp79_Ile278'
p9219
F0.0
tp9220
a(S'Asp79_Thr281'
p9221
F0.0
tp9222
a(S'Asp79_Cys285'
p9223
F0.0
tp9224
a(S'Val81_Thr110'
p9225
F0.0
tp9226
a(S'Met82_Trp105'
p9227
F0.0
tp9228
a(S'Met82_Phe282'
p9229
F0.0
tp9230
a(S'Met82_Cys285'
p9231
F0.0
tp9232
a(S'Met82_Leu311'
p9233
F2.7865196685593466e-05
tp9234
a(S'Leu84_Phe101'
p9235
F0.0007500875605628777
tp9236
a(S'Ala85_Glu107'
p9237
F0.0
tp9238
a(S'Ala85_Ser319'
p9239
F0.000631689556641224
tp9240
a(S'Val86_Glu107'
p9241
F0.0
tp9242
a(S'Val86_Ser120'
p9243
F0.0006546600859736317
tp9244
a(S'Val86_Val317'
p9245
F0.0
tp9246
a(S'Val87_Trp105'
p9247
F0.0
tp9248
a(S'Pro88_Ser319'
p9249
F0.0
tp9250
a(S'Cys106_Gly90'
p9251
F0.0
tp9252
a(S'Asp192_Gly90'
p9253
F0.0
tp9254
a(S'Ala91_Asn312'
p9255
F0.0006619767682815163
tp9256
a(S'His93_Asn312'
p9257
F2.3358511091460087e-05
tp9258
a(S'Ile94_Val307'
p9259
F0.0
tp9260
a(S'Leu95_Phe101'
p9261
F0.0
tp9262
a(S'Met96_Gly102'
p9263
F0.0
tp9264
a(S'Lys97_Phe101'
p9265
F0.0
tp9266
a(S'Lys97_Glu187'
p9267
F0.0
tp9268
a(S'Met98_Lys305'
p9269
F0.00026674451191033695
tp9270
a(S'Trp99_Lys305'
p9271
F0.0
tp9272
a(S'Trp99_Trp313'
p9273
F0.0
tp9274
a(S'Phe104_Arg304'
p9275
F0.0
tp9276
a(S'Phe104_Glu306'
p9277
F0.0
tp9278
a(S'Phe104_Val307'
p9279
F0.0
tp9280
a(S'Phe104_Leu310'
p9281
F0.0
tp9282
a(S'Cys106_Tyr316'
p9283
F0.0
tp9284
a(S'Glu107_Arg304'
p9285
F0.0
tp9286
a(S'Glu107_Val307'
p9287
F0.0009377189269659441
tp9288
a(S'Phe108_Phe193'
p9289
F0.0
tp9290
a(S'Phe108_Leu310'
p9291
F0.0
tp9292
a(S'Trp109_Cys184'
p9293
F0.0
tp9294
a(S'Trp109_Phe289'
p9295
F0.0
tp9296
a(S'Thr110_Phe289'
p9297
F0.0012002101576183252
tp9298
a(S'Ser111_Ser203'
p9299
F0.0
tp9300
a(S'Ile112_Trp286'
p9301
F0.0
tp9302
a(S'Asp113_Phe282'
p9303
F0.0
tp9304
a(S'Asp113_Leu311'
p9305
F0.0
tp9306
a(S'Asp113_Val317'
p9307
F0.0
tp9308
a(S'Val114_Phe282'
p9309
F0.0003522536853010506
tp9310
a(S'Leu115_Phe208'
p9311
F0.0
tp9312
a(S'Leu115_Phe282'
p9313
F0.002089691522902215
tp9314
a(S'Cys116_Phe208'
p9315
F0.0
tp9316
a(S'Cys116_Phe282'
p9317
F0.0
tp9318
a(S'Val117_Leu212'
p9319
F0.0
tp9320
a(S'Val117_Met215'
p9321
F0.0
tp9322
a(S'Val117_Thr283'
p9323
F0.0
tp9324
a(S'Thr118_Met215'
p9325
F0.0
tp9326
a(S'Ala119_Phe166'
p9327
F0.0
tp9328
a(S'Ala119_Met215'
p9329
F0.0
tp9330
a(S'Ser120_Ser165'
p9331
F0.0
tp9332
a(S'Ser120_Ile278'
p9333
F0.0
tp9334
a(S'Ser120_Met279'
p9335
F0.0
tp9336
a(S'Ser120_Thr283'
p9337
F0.0
tp9338
a(S'Ile121_Phe217'
p9339
F0.0
tp9340
a(S'Ile121_Leu275'
p9341
F0.0008949457829289009
tp9342
a(S'Ile121_Gly280'
p9343
F0.00040009340883880273
tp9344
a(S'Ile121_Leu284'
p9345
F0.0016505910487758016
tp9346
a(S'Glu122_Met279'
p9347
F0.0
tp9348
a(S'Thr123_Leu145'
p9349
F0.0
tp9350
a(S'Thr123_Leu275'
p9351
F0.0
tp9352
a(S'Thr123_Met279'
p9353
F0.0
tp9354
a(S'Leu124_Val213'
p9355
F0.0
tp9356
a(S'Leu124_Phe217'
p9357
F0.0
tp9358
a(S'Leu124_Val222'
p9359
F0.0
tp9360
a(S'Leu124_Thr274'
p9361
F0.0
tp9362
a(S'Leu124_Leu275'
p9363
F0.0016000933924824178
tp9364
a(S'Leu124_Gly276'
p9365
F0.0
tp9366
a(S'Cys125_Ser161'
p9367
F0.0
tp9368
a(S'Cys125_Val222'
p9369
F0.0
tp9370
a(S'Cys125_Leu275'
p9371
F0.0
tp9372
a(S'Cys125_Gly280'
p9373
F0.0009132566940885714
tp9374
a(S'Cys125_Thr283'
p9375
F0.0011551075633843744
tp9376
a(S'Val126_Ser143'
p9377
F0.0
tp9378
a(S'Val126_Leu144'
p9379
F0.0
tp9380
a(S'Val126_Val216'
p9381
F0.0
tp9382
a(S'Val126_Val222'
p9383
F0.0
tp9384
a(S'Val126_Leu275'
p9385
F0.0
tp9386
a(S'Val126_Met279'
p9387
F0.0
tp9388
a(S'Ile127_Ser143'
p9389
F0.00030008757589912905
tp9390
a(S'Ile127_Leu144'
p9391
F0.0
tp9392
a(S'Ile127_Val216'
p9393
F0.0
tp9394
a(S'Ile127_Ala271'
p9395
F0.0
tp9396
a(S'Ile127_Leu272'
p9397
F0.0
tp9398
a(S'Ile127_Thr274'
p9399
F0.0011616977692707887
tp9400
a(S'Ile127_Leu275'
p9401
F0.00047379482625647734
tp9402
a(S'Ile127_Gly276'
p9403
F0.0
tp9404
a(S'Ile127_Ile277'
p9405
F0.0
tp9406
a(S'Ile127_Met279'
p9407
F0.0
tp9408
a(S'Ile127_Phe282'
p9409
F0.0
tp9410
a(S'Ala128_Ser143'
p9411
F0.0
tp9412
a(S'Ala128_Phe223'
p9413
F0.0
tp9414
a(S'Ala128_Glu225'
p9415
F0.0
tp9416
a(S'Ala128_Leu272'
p9417
F0.0
tp9418
a(S'Ala128_Gly276'
p9419
F0.0
tp9420
a(S'Ala128_Gly280'
p9421
F0.0018178500058662471
tp9422
a(S'Val129_Gln142'
p9423
F0.0
tp9424
a(S'Val129_Ser143'
p9425
F0.0
tp9426
a(S'Val129_Leu144'
p9427
F0.0
tp9428
a(S'Val129_Leu272'
p9429
F0.0004445222805993796
tp9430
a(S'Val129_Leu275'
p9431
F2.1476588198647135e-06
tp9432
a(S'Val129_Met279'
p9433
F0.0
tp9434
a(S'Asp130_Phe139'
p9435
F0.0
tp9436
a(S'Asp130_Ser143'
p9437
F9.362485655763673e-06
tp9438
a(S'Asp130_Leu272'
p9439
F0.0
tp9440
a(S'Asp130_Leu275'
p9441
F0.0
tp9442
a(S'Asp130_Met279'
p9443
F0.0
tp9444
a(S'Arg131_Phe139'
p9445
F0.00031318235594356104
tp9446
a(S'Arg131_Lys140'
p9447
F0.0
tp9448
a(S'Arg131_Ser143'
p9449
F2.55772389145507e-06
tp9450
a(S'Arg131_Leu144'
p9451
F0.0
tp9452
a(S'Arg131_Ala150'
p9453
F0.0
tp9454
a(S'Arg131_Ser220'
p9455
F0.0009877696270786873
tp9456
a(S'Arg131_Phe223'
p9457
F0.0
tp9458
a(S'Arg131_Gln224'
p9459
F0.000971541983205251
tp9460
a(S'Arg131_Glu225'
p9461
F0.0
tp9462
a(S'Arg131_Ala226'
p9463
F0.0
tp9464
a(S'Arg131_Lys267'
p9465
F0.0
tp9466
a(S'Arg131_Glu268'
p9467
F0.001333411160402015
tp9468
a(S'Arg131_His269'
p9469
F0.0
tp9470
a(S'Arg131_Lys270'
p9471
F0.0002868144247779274
tp9472
a(S'Arg131_Ala271'
p9473
F0.0019215461151916215
tp9474
a(S'Arg131_Leu272'
p9475
F0.0
tp9476
a(S'Arg131_Lys273'
p9477
F0.00020005838393275272
tp9478
a(S'Arg131_Gly276'
p9479
F0.0
tp9480
a(S'Arg131_Met279'
p9481
F0.0
tp9482
a(S'Tyr132_Gln142'
p9483
F0.0
tp9484
a(S'Tyr132_Ser143'
p9485
F0.0
tp9486
a(S'Tyr132_Leu144'
p9487
F0.0
tp9488
a(S'Tyr132_Leu272'
p9489
F0.0
tp9490
a(S'Tyr132_Met279'
p9491
F0.0
tp9492
a(S'Phe133_Leu272'
p9493
F0.0
tp9494
a(S'Ala134_Tyr219'
p9495
F0.0
tp9496
a(S'Ala134_Arg221'
p9497
F0.0
tp9498
a(S'Ala134_Ala226'
p9499
F0.0
tp9500
a(S'Ala134_Glu268'
p9501
F0.0
tp9502
a(S'Ala134_Leu272'
p9503
F0.0
tp9504
a(S'Ala134_Leu275'
p9505
F0.0
tp9506
a(S'Ile135_Ser143'
p9507
F0.0
tp9508
a(S'Ile135_Leu144'
p9509
F0.0
tp9510
a(S'Ile135_Glu268'
p9511
F0.0
tp9512
a(S'Ile135_His269'
p9513
F0.000500087565674302
tp9514
a(S'Ile135_Lys270'
p9515
F2.0612815815128744e-05
tp9516
a(S'Ile135_Leu272'
p9517
F0.0
tp9518
a(S'Ile135_Lys273'
p9519
F0.0
tp9520
a(S'Thr136_Ser143'
p9521
F0.0
tp9522
a(S'Thr136_Leu144'
p9523
F0.0
tp9524
a(S'Thr136_Leu272'
p9525
F0.0
tp9526
a(S'Lys140_Ala226'
p9527
F0.0
tp9528
a(S'Lys140_Glu268'
p9529
F0.0
tp9530
a(S'Lys140_His269'
p9531
F0.0
tp9532
a(S'Lys140_Leu272'
p9533
F0.0
tp9534
a(S'Tyr141_Tyr219'
p9535
F0.0
tp9536
a(S'Tyr141_Arg221'
p9537
F0.0
tp9538
a(S'Tyr141_Val222'
p9539
F0.0
tp9540
a(S'Tyr141_Phe223'
p9541
F0.0
tp9542
a(S'Tyr141_Gln224'
p9543
F0.0
tp9544
a(S'Tyr141_Glu225'
p9545
F0.0
tp9546
a(S'Tyr141_Ala226'
p9547
F0.0
tp9548
a(S'Tyr141_Lys267'
p9549
F0.0
tp9550
a(S'Tyr141_Glu268'
p9551
F0.0
tp9552
a(S'Tyr141_His269'
p9553
F0.0005834354932866858
tp9554
a(S'Tyr141_Lys270'
p9555
F0.0007054114824515859
tp9556
a(S'Tyr141_Ala271'
p9557
F0.0
tp9558
a(S'Tyr141_Leu272'
p9559
F0.0
tp9560
a(S'Tyr141_Lys273'
p9561
F0.0
tp9562
a(S'Tyr141_Leu275'
p9563
F0.0
tp9564
a(S'Gln142_Glu268'
p9565
F0.0
tp9566
a(S'Gln142_Leu272'
p9567
F0.0
tp9568
a(S'Ser143_Arg151'
p9569
F0.0
tp9570
a(S'Ser143_Ile153'
p9571
F0.0
tp9572
a(S'Leu145_Val157'
p9573
F0.0
tp9574
a(S'Thr146_Lys273'
p9575
F0.0
tp9576
a(S'Lys147_Lys273'
p9577
F0.0
tp9578
a(S'Asn148_Met156'
p9579
F0.0
tp9580
a(S'Asn148_Lys270'
p9581
F0.0010028178176262467
tp9582
a(S'Asn148_Lys273'
p9583
F0.0
tp9584
a(S'Asn148_Ile277'
p9585
F0.0
tp9586
a(S'Asn148_Arg328'
p9587
F0.0
tp9588
a(S'Lys149_Lys273'
p9589
F0.0
tp9590
a(S'Arg151_Lys273'
p9591
F0.0
tp9592
a(S'Val152_Lys273'
p9593
F0.0
tp9594
a(S'Leu155_Leu284'
p9595
F0.0
tp9596
a(S'Met156_Leu284'
p9597
F0.0
tp9598
a(S'Ile159_Leu284'
p9599
F0.0
tp9600
a(S'Thr164_Val210'
p9601
F0.0
tp9602
a(S'Phe166_Phe193'
p9603
F0.0
tp9604
a(S'Leu167_Ser203'
p9605
F0.0
tp9606
a(S'Leu167_Ser207'
p9607
F0.0
tp9608
a(S'Leu167_Ile303'
p9609
F0.0
tp9610
a(S'Gln170_Leu302'
p9611
F0.0005055637001384908
tp9612
a(S'Gln170_Ile303'
p9613
F0.0
tp9614
a(S'Gln170_Arg304'
p9615
F0.0
tp9616
a(S'Gln170_Val307'
p9617
F0.0
tp9618
a(S'Met171_Val295'
p9619
F0.0
tp9620
a(S'Met171_Asn301'
p9621
F4.449735973691768e-06
tp9622
a(S'Met171_Leu302'
p9623
F0.0
tp9624
a(S'Met171_Ile303'
p9625
F0.0006547365292344635
tp9626
a(S'Met171_Arg304'
p9627
F0.00025005838052425175
tp9628
a(S'His172_Phe193'
p9629
F0.0
tp9630
a(S'His172_Arg304'
p9631
F0.0
tp9632
a(S'Trp173_Ile201'
p9633
F0.0004445222805993796
tp9634
a(S'Trp173_Leu302'
p9635
F0.0
tp9636
a(S'Tyr174_Glu187'
p9637
F0.0
tp9638
a(S'Tyr174_Ser204'
p9639
F0.0
tp9640
a(S'Arg175_Glu180'
p9641
F0.0
tp9642
a(S'Arg175_Ser203'
p9643
F0.0
tp9644
a(S'Ala181_Asp300'
p9645
F0.0
tp9646
a(S'Thr189_Lys305'
p9647
F0.0
tp9648
a(S'Cys191_Thr195'
p9649
F0.0006667834208990694
tp9650
a(S'Cys191_Asn312'
p9651
F0.0
tp9652
a(S'Asp192_Asn196'
p9653
F0.0
tp9654
a(S'Asp192_Asn312'
p9655
F0.0
tp9656
a(S'Phe193_Asp300'
p9657
F0.0
tp9658
a(S'Asn196_Asp300'
p9659
F0.0
tp9660
a(S'Gln197_Asn301'
p9661
F0.0
tp9662
a(S'Ala200_Asp300'
p9663
F0.0
tp9664
a(S'Tyr209_Tyr308'
p9665
F0.0
tp9666
a(S'Val210_Ile294'
p9667
F0.0
tp9668
a(S'Leu212_Gly276'
p9669
F0.0
tp9670
a(S'Ile214_Thr283'
p9671
F0.001111305701498449
tp9672
a(S'Met215_Cys285'
p9673
F0.0
tp9674
a(S'Met215_Leu287'
p9675
F0.0
tp9676
a(S'Val216_Gly276'
p9677
F0.0016560437110043527
tp9678
a(S'Val216_Thr281'
p9679
F0.0
tp9680
a(S'Val216_Leu284'
p9681
F0.0
tp9682
a(S'Phe217_Thr283'
p9683
F0.0
tp9684
a(S'Val218_Leu272'
p9685
F0.0
tp9686
a(S'Val218_Gly276'
p9687
F0.00037015343625272954
tp9688
a(S'Tyr219_Lys267'
p9689
F0.0
tp9690
a(S'Tyr219_Glu268'
p9691
F0.0
tp9692
a(S'Tyr219_His269'
p9693
F0.0
tp9694
a(S'Tyr219_Lys270'
p9695
F0.0019344046496412575
tp9696
a(S'Tyr219_Lys273'
p9697
F0.0
tp9698
a(S'Tyr219_Arg328'
p9699
F0.0009167736851324061
tp9700
a(S'Arg221_Leu272'
p9701
F0.0
tp9702
a(S'Arg221_Met279'
p9703
F0.0008001868176776055
tp9704
a(S'Val222_His269'
p9705
F0.0
tp9706
a(S'Phe223_Lys270'
p9707
F0.0
tp9708
a(S'Phe223_Ile277'
p9709
F0.0
tp9710
a(S'Phe223_Ile278'
p9711
F0.0
tp9712
a(S'Phe223_Gly280'
p9713
F0.0
tp9714
a(S'Phe223_Arg328'
p9715
F0.0
tp9716
a(S'Gln224_His269'
p9717
F0.000652596539603345
tp9718
a(S'Glu225_His269'
p9719
F0.0
tp9720
a(S'Glu225_Leu272'
p9721
F0.001333488996556227
tp9722
a(S'Ala226_Lys270'
p9723
F0.0005000583737085851
tp9724
a(S'Ala226_Lys273'
p9725
F0.0
tp9726
a(S'Lys267_Arg328'
p9727
F0.0
tp9728
a(S'Lys267_Ser329'
p9729
F0.0
tp9730
a(S'Lys267_Pro330'
p9731
F0.0
tp9732
a(S'Lys267_Asp331'
p9733
F0.0005334267367192554
tp9734
a(S'Glu268_Arg328'
p9735
F0.0
tp9736
a(S'Glu268_Ser329'
p9737
F0.0
tp9738
a(S'Glu268_Pro330'
p9739
F0.0
tp9740
a(S'Glu268_Asp331'
p9741
F0.0
tp9742
a(S'His269_Arg328'
p9743
F0.0
tp9744
a(S'Lys270_Ile325'
p9745
F0.0
tp9746
a(S'Lys270_Tyr326'
p9747
F0.0
tp9748
a(S'Lys270_Cys327'
p9749
F0.0
tp9750
a(S'Lys270_Ser329'
p9751
F0.0
tp9752
a(S'Lys270_Pro330'
p9753
F0.0
tp9754
a(S'Ala271_Ile325'
p9755
F0.0
tp9756
a(S'Ala271_Tyr326'
p9757
F0.0
tp9758
a(S'Ala271_Arg328'
p9759
F0.0
tp9760
a(S'Ala271_Ser329'
p9761
F0.0
tp9762
a(S'Ala271_Pro330'
p9763
F0.0
tp9764
a(S'Ala271_Asp331'
p9765
F0.0
tp9766
a(S'Ala271_Phe332'
p9767
F0.0
tp9768
a(S'Leu272_Ile325'
p9769
F0.0
tp9770
a(S'Leu272_Arg328'
p9771
F0.0
tp9772
a(S'Leu272_Ser329'
p9773
F0.0
tp9774
a(S'Leu272_Pro330'
p9775
F0.0
tp9776
a(S'Lys273_Tyr326'
p9777
F0.0
tp9778
a(S'Lys273_Ser329'
p9779
F0.0
tp9780
a(S'Thr274_Phe321'
p9781
F0.0
tp9782
a(S'Thr274_Asn322'
p9783
F0.0
tp9784
a(S'Thr274_Pro323'
p9785
F0.0
tp9786
a(S'Thr274_Pro330'
p9787
F0.0
tp9788
a(S'Thr274_Asp331'
p9789
F0.0
tp9790
a(S'Thr274_Phe332'
p9791
F0.0
tp9792
a(S'Thr274_Arg333'
p9793
F0.0
tp9794
a(S'Thr274_Phe336'
p9795
F0.0
tp9796
a(S'Leu275_Asn322'
p9797
F0.0
tp9798
a(S'Leu275_Cys327'
p9799
F0.0
tp9800
a(S'Leu275_Arg328'
p9801
F0.0
tp9802
a(S'Leu275_Ser329'
p9803
F0.0
tp9804
a(S'Leu275_Phe332'
p9805
F0.0
tp9806
a(S'Gly276_Asn318'
p9807
F0.0
tp9808
a(S'Gly276_Asn322'
p9809
F0.0
tp9810
a(S'Gly276_Arg328'
p9811
F0.0
tp9812
a(S'Ile277_Pro323'
p9813
F0.0
tp9814
a(S'Ile277_Cys327'
p9815
F0.0012001400969006042
tp9816
a(S'Ile277_Ser329'
p9817
F0.0
tp9818
a(S'Ile278_Ser319'
p9819
F0.0
tp9820
a(S'Ile278_Gly320'
p9821
F0.0
tp9822
a(S'Ile278_Pro323'
p9823
F0.0
tp9824
a(S'Ile278_Ser329'
p9825
F0.00013799520277948992
tp9826
a(S'Ile278_Phe332'
p9827
F0.0
tp9828
a(S'Met279_Phe321'
p9829
F0.0
tp9830
a(S'Thr281_Leu311'
p9831
F0.0
tp9832
a(S'Thr281_Arg328'
p9833
F0.0
tp9834
a(S'Phe282_Asn312'
p9835
F0.0
tp9836
a(S'Phe282_Gly320'
p9837
F0.0009610086780932032
tp9838
a(S'Thr283_Ser319'
p9839
F0.0
tp9840
a(S'Leu284_Ile291'
p9841
F0.0006377928373817186
tp9842
a(S'Cys285_Val307'
p9843
F0.0
tp9844
a(S'Leu287_Ile303'
p9845
F0.0
tp9846
a(S'Asn293_Asn301'
p9847
F0.0
tp9848
a(S'Asp300_Tyr308'
p9849
F0.0
tp9850
a(S'Asn301_Glu306'
p9851
F0.0
tp9852
a(S'Asn301_Val307'
p9853
F0.0009609864605235676
tp9854
a(S'Asn301_Tyr308'
p9855
F0.0
tp9856
a(S'Gly320_Phe336'
p9857
F0.0
tp9858
a(S'Asn322_Arg333'
p9859
F0.0
tp9860
a(S'Leu324_Pro330'
p9861
F0.0
tp9862
a(S'Ile325_Pro330'
p9863
F0.001500087555452267
tp9864
a(S'Ile325_Asp331'
p9865
F0.0
tp9866
a(S'Tyr326_Ile334'
p9867
F0.0
tp9868
a(S'Tyr326_Ala335'
p9869
F0.0
tp9870
a(S'Tyr326_Gln337'
p9871
F1.8537519576944313e-06
tp9872
a.